(lp0
(dp1
S'person basketball-30'
p2
(lp3
F0.36
aF0.6799999999999999
aF0.36
aF0.36
asa(dp4
S'person basketball-31'
p5
(lp6
F1.0
aF0.6666666666666667
aF1.0
aF0.5555555555555556
asa(dp7
S'person basketball-32'
p8
(lp9
F0.6666666666666667
aF0.4444444444444444
aF0.6666666666666667
aF0.4444444444444444
asa(dp10
S'person basketball-33'
p11
(lp12
F0.75
aF0.5
aF0.75
aF0.5
asa(dp13
S'person basketball-34'
p14
(lp15
F1.0
aF1.0
aF1.0
aF0.75
asa(dp16
S'person basketball-35'
p17
(lp18
F0.6799999999999999
aF0.52
aF0.6799999999999999
aF0.52
asa(dp19
S'person basketball-36'
p20
(lp21
F0.52
aF0.36
aF0.52
aF0.36
asa(dp22
S'person basketball-37'
p23
(lp24
F1.0
aF0.5555555555555556
aF1.0
aF0.5555555555555556
asa(dp25
S'person basketball-38'
p26
(lp27
F0.25
aF0.25
aF0.25
aF0.25
asa(dp28
S'sheep grass-43'
p29
(lp30
F0.040000000000000036
aF0.19999999999999996
aF0.040000000000000036
aF0.52
asa(dp31
S'sheep grass-40'
p32
(lp33
F0.75
aF0.25
aF0.75
aF0.25
asa(dp34
S'sheep grass-41'
p35
(lp36
F0.5555555555555556
aF0.33333333333333337
aF0.5555555555555556
aF0.11111111111111116
asa(dp37
S'sheep grass-46'
p38
(lp39
F0.25
aF0.5
aF0.25
aF0.0
asa(dp40
S'sheep grass-47'
p41
(lp42
F1.0
aF0.0
aF1.0
aF0.0
asa(dp43
S'sheep grass-44'
p44
(lp45
F0.0
aF0.0
aF0.0
aF0.0
asa(dp46
S'sheep grass-45'
p47
(lp48
F0.36
aF0.6799999999999999
aF0.36
aF0.36
asa(dp49
S'sheep grass-49'
p50
(lp51
F1.0
aF1.0
aF1.0
aF0.11111111111111116
asa(dp52
S'person kitchen-27'
p53
(lp54
F0.0
aF1.0
aF0.0
aF0.0
asa(dp55
S'sheep grass-42'
p56
(lp57
F1.0
aF0.25
aF1.0
aF0.5
asa(dp58
S'dog water-32'
p59
(lp60
F0.11111111111111116
aF0.11111111111111116
aF0.11111111111111116
aF0.11111111111111116
asa(dp61
S'person basketball-39'
p62
(lp63
F0.3125
aF0.5
aF0.3125
aF0.3125
asa(dp64
S'sheep grass-32'
p65
(lp66
F0.5
aF0.5
aF0.5
aF0.25
asa(dp67
S'person beach-17'
p68
(lp69
F0.5
aF0.3125
aF0.5
aF0.1875
asa(dp70
S'sofa-9'
p71
(lp72
F0.5555555555555556
aF0.2222222222222222
aF0.5555555555555556
aF0.4444444444444444
asa(dp73
S'person kitchen-14'
p74
(lp75
F1.0
aF1.0
aF1.0
aF0.0
asa(dp76
S'person beach-14'
p77
(lp78
F0.5555555555555556
aF0.2222222222222222
aF0.5555555555555556
aF0.33333333333333337
asa(dp79
S'person beach-13'
p80
(lp81
F0.5555555555555556
aF0.33333333333333337
aF0.5555555555555556
aF0.6666666666666667
asa(dp82
S'person beach-11'
p83
(lp84
F0.4285714285714286
aF0.5102040816326531
aF0.4285714285714286
aF0.4285714285714286
asa(dp85
S'person kitchen-11'
p86
(lp87
F0.5555555555555556
aF0.11111111111111116
aF0.5555555555555556
aF0.11111111111111116
asa(dp88
S'sofa-5'
p89
(lp90
F0.52
aF0.040000000000000036
aF0.52
aF0.36
asa(dp91
S'person beach-19'
p92
(lp93
F0.5625
aF0.5
aF0.5625
aF0.5625
asa(dp94
S'person beach-18'
p95
(lp96
F0.5555555555555556
aF0.4444444444444444
aF0.5555555555555556
aF0.4444444444444444
asa(dp97
S'person beach-41'
p98
(lp99
F0.34693877551020413
aF0.10204081632653061
aF0.34693877551020413
aF0.18367346938775508
asa(dp100
S'car-16'
p101
(lp102
F0.4375
aF0.4375
aF0.4375
aF0.375
asa(dp103
S'dog water-26'
p104
(lp105
F0.5555555555555556
aF1.0
aF0.5555555555555556
aF0.5555555555555556
asa(dp106
S'cat-10'
p107
(lp108
F0.6734693877551021
aF0.18367346938775508
aF0.6734693877551021
aF0.7551020408163265
asa(dp109
S'dog water-24'
p110
(lp111
F0.11111111111111116
aF0.5555555555555556
aF0.11111111111111116
aF1.0
asa(dp112
S'dog water-25'
p113
(lp114
F0.25
aF0.25
aF0.25
aF0.75
asa(dp115
S'dog water-23'
p116
(lp117
F0.5555555555555556
aF0.5555555555555556
aF0.5555555555555556
aF1.0
asa(dp118
S'dog water-20'
p119
(lp120
F0.0
aF0.0
aF0.0
aF0.0
asa(dp121
S'dog water-21'
p122
(lp123
F0.5555555555555556
aF1.0
aF0.5555555555555556
aF1.0
asa(dp124
S'cat-12'
p125
(lp126
F0.5555555555555556
aF0.7777777777777778
aF0.5555555555555556
aF0.2222222222222222
asa(dp127
S'dog water-28'
p128
(lp129
F0.4444444444444444
aF0.5555555555555556
aF0.4444444444444444
aF0.5555555555555556
asa(dp130
S'dog water-29'
p131
(lp132
F1.0
aF1.0
aF1.0
aF1.0
asa(dp133
S'car-33'
p134
(lp135
F0.4375
aF0.5
aF0.4375
aF0.5625
asa(dp136
S'car-34'
p137
(lp138
F0.6666666666666667
aF0.8888888888888888
aF0.6666666666666667
aF0.4444444444444444
asa(dp139
S'car-35'
p140
(lp141
F0.56
aF0.24
aF0.56
aF0.24
asa(dp142
S'car grass-5'
p143
(lp144
F0.5555555555555556
aF0.5555555555555556
aF0.5555555555555556
aF0.7777777777777778
asa(dp145
S'car grass-6'
p146
(lp147
F0.5555555555555556
aF1.0
aF0.5555555555555556
aF1.0
asa(dp148
S'car grass-7'
p149
(lp150
F0.11111111111111116
aF0.5555555555555556
aF0.11111111111111116
aF1.0
asa(dp151
S'cat-43'
p152
(lp153
F0.4444444444444444
aF0.33333333333333337
aF0.4444444444444444
aF0.2222222222222222
asa(dp154
S'cat-42'
p155
(lp156
F0.7777777777777778
aF0.6666666666666667
aF0.7777777777777778
aF0.11111111111111116
asa(dp157
S'cat-41'
p158
(lp159
F0.4444444444444444
aF0.4444444444444444
aF0.4444444444444444
aF0.0
asa(dp160
S'cat-40'
p161
(lp162
F0.5555555555555556
aF0.654320987654321
aF0.5555555555555556
aF0.5555555555555556
asa(dp163
S'car grass-8'
p164
(lp165
F0.7777777777777778
aF0.6666666666666667
aF0.7777777777777778
aF0.6666666666666667
asa(dp166
S'cat-46'
p167
(lp168
F0.5918367346938775
aF0.5918367346938775
aF0.5918367346938775
aF0.5102040816326531
asa(dp169
S'cat-45'
p170
(lp171
F0.25
aF0.75
aF0.25
aF0.5
asa(dp172
S'cat-44'
p173
(lp174
F0.18367346938775508
aF0.6734693877551021
aF0.18367346938775508
aF0.020408163265306145
asa(dp175
S'car street-22'
p176
(lp177
F0.45679012345679015
aF0.3580246913580247
aF0.45679012345679015
aF0.6049382716049383
asa(dp178
S'person room-49'
p179
(lp180
F0.16049382716049387
aF0.5555555555555556
aF0.16049382716049387
aF0.5061728395061729
asa(dp181
S'person room-48'
p182
(lp183
F0.64
aF0.28
aF0.64
aF0.31999999999999995
asa(dp184
S'person room-47'
p185
(lp186
F0.06172839506172845
aF0.3580246913580247
aF0.06172839506172845
aF0.45679012345679015
asa(dp187
S'person room-46'
p188
(lp189
F0.3125
aF0.5625
aF0.3125
aF0.4375
asa(dp190
S'person room-45'
p191
(lp192
F0.5061728395061729
aF0.2098765432098766
aF0.5061728395061729
aF0.2592592592592593
asa(dp193
S'person room-44'
p194
(lp195
F0.4
aF0.52
aF0.4
aF0.48
asa(dp196
S'person room-43'
p197
(lp198
F0.43999999999999995
aF0.31999999999999995
aF0.43999999999999995
aF0.16000000000000003
asa(dp199
S'person room-42'
p200
(lp201
F0.020408163265306145
aF0.26530612244897955
aF0.020408163265306145
aF0.4285714285714286
asa(dp202
S'person room-41'
p203
(lp204
F0.52
aF0.36
aF0.52
aF0.36
asa(dp205
S'person room-40'
p206
(lp207
F0.2592592592592593
aF0.2098765432098766
aF0.2592592592592593
aF0.2098765432098766
asa(dp208
S'person room-39'
p209
(lp210
F0.4
aF0.19999999999999996
aF0.4
aF0.28
asa(dp211
S'bird grass-27'
p212
(lp213
F0.5555555555555556
aF0.5555555555555556
aF0.5555555555555556
aF1.0
asa(dp214
S'bird grass-26'
p215
(lp216
F0.25
aF0.5
aF0.25
aF0.0
asa(dp217
S'bird grass-25'
p218
(lp219
F0.75
aF1.0
aF0.75
aF0.75
asa(dp220
S'bird grass-24'
p221
(lp222
F0.2222222222222222
aF0.5555555555555556
aF0.2222222222222222
aF0.6666666666666667
asa(dp223
S'bird grass-23'
p224
(lp225
F0.0
aF0.5
aF0.0
aF0.5
asa(dp226
S'bird grass-22'
p227
(lp228
F0.52
aF0.52
aF0.52
aF0.36
asa(dp229
S'bird grass-21'
p230
(lp231
F0.75
aF0.25
aF0.75
aF0.25
asa(dp232
S'bird grass-20'
p233
(lp234
F0.5555555555555556
aF0.5555555555555556
aF0.5555555555555556
aF0.5555555555555556
asa(dp235
S'bird grass-29'
p236
(lp237
F0.25
aF0.75
aF0.25
aF0.75
asa(dp238
S'bird grass-28'
p239
(lp240
F0.25
aF1.0
aF0.25
aF1.0
asa(dp241
S'cat-29'
p242
(lp243
F0.25
aF0.375
aF0.25
aF0.375
asa(dp244
S'car grass-38'
p245
(lp246
F1.0
aF0.0
aF1.0
aF0.0
asa(dp247
S'horse grass-16'
p248
(lp249
F1.0
aF0.0
aF1.0
aF0.0
asa(dp250
S'horse grass-15'
p251
(lp252
F0.0
aF1.0
aF0.0
aF1.0
asa(dp253
S'horse grass-14'
p254
(lp255
F0.11111111111111116
aF0.11111111111111116
aF0.11111111111111116
aF0.11111111111111116
asa(dp256
S'horse grass-13'
p257
(lp258
F0.5555555555555556
aF1.0
aF0.5555555555555556
aF0.5555555555555556
asa(dp259
S'horse grass-12'
p260
(lp261
F0.75
aF0.25
aF0.75
aF0.25
asa(dp262
S'cat-38'
p263
(lp264
F0.5102040816326531
aF0.7551020408163265
aF0.5102040816326531
aF0.6734693877551021
asa(dp265
S'car-19'
p266
(lp267
F0.5102040816326531
aF0.18367346938775508
aF0.5102040816326531
aF0.26530612244897955
asa(dp268
S'cat-36'
p269
(lp270
F0.52
aF0.36
aF0.52
aF0.6799999999999999
asa(dp271
S'car grass-31'
p272
(lp273
F0.11111111111111116
aF0.11111111111111116
aF0.11111111111111116
aF0.11111111111111116
asa(dp274
S'car grass-32'
p275
(lp276
F0.25
aF0.5
aF0.25
aF0.25
asa(dp277
S'cat-35'
p278
(lp279
F0.33333333333333337
aF0.8888888888888888
aF0.33333333333333337
aF0.33333333333333337
asa(dp280
S'cat-32'
p281
(lp282
F0.4285714285714286
aF0.6734693877551021
aF0.4285714285714286
aF0.26530612244897955
asa(dp283
S'car-13'
p284
(lp285
F0.26530612244897955
aF0.8367346938775511
aF0.26530612244897955
aF0.5918367346938775
asa(dp286
S'cat-30'
p287
(lp288
F0.4285714285714286
aF0.34693877551020413
aF0.4285714285714286
aF0.18367346938775508
asa(dp289
S'car-11'
p290
(lp291
F0.26530612244897955
aF0.5102040816326531
aF0.26530612244897955
aF0.34693877551020413
asa(dp292
S'person-38'
p293
(lp294
F0.6049382716049383
aF0.6049382716049383
aF0.6049382716049383
aF0.6049382716049383
asa(dp295
S'person-39'
p296
(lp297
F0.5625
aF0.5
aF0.5625
aF0.8125
asa(dp298
S'person guitar-39'
p299
(lp300
F0.375
aF0.25
aF0.375
aF0.5625
asa(dp301
S'person guitar-38'
p302
(lp303
F0.7037037037037037
aF0.2592592592592593
aF0.7037037037037037
aF0.45679012345679015
asa(dp304
S'person guitar-35'
p305
(lp306
F0.40740740740740744
aF0.5555555555555556
aF0.40740740740740744
aF0.6049382716049383
asa(dp307
S'person-31'
p308
(lp309
F0.45679012345679015
aF0.5061728395061729
aF0.45679012345679015
aF0.6049382716049383
asa(dp310
S'person guitar-37'
p311
(lp312
F0.2592592592592593
aF0.3580246913580247
aF0.2592592592592593
aF0.5061728395061729
asa(dp313
S'person-33'
p314
(lp315
F0.308641975308642
aF0.308641975308642
aF0.308641975308642
aF0.5061728395061729
asa(dp316
S'person-34'
p317
(lp318
F0.2098765432098766
aF0.45679012345679015
aF0.2098765432098766
aF0.6049382716049383
asa(dp319
S'person guitar-30'
p320
(lp321
F0.4
aF0.48
aF0.4
aF0.48
asa(dp322
S'person-36'
p323
(lp324
F0.48
aF0.43999999999999995
aF0.48
aF0.6
asa(dp325
S'person-37'
p326
(lp327
F0.1875
aF0.75
aF0.1875
aF0.4375
asa(dp328
S'horse-39'
p329
(lp330
F0.4375
aF0.4375
aF0.4375
aF0.1875
asa(dp331
S'horse-38'
p332
(lp333
F0.34693877551020413
aF0.5102040816326531
aF0.34693877551020413
aF0.10204081632653061
asa(dp334
S'person guitar-13'
p335
(lp336
F0.375
aF0.6875
aF0.375
aF0.625
asa(dp337
S'horse-31'
p338
(lp339
F0.5102040816326531
aF0.4285714285714286
aF0.5102040816326531
aF0.10204081632653061
asa(dp340
S'horse-30'
p341
(lp342
F0.5
aF0.5
aF0.5
aF0.4375
asa(dp343
S'horse-33'
p344
(lp345
F0.6734693877551021
aF0.5918367346938775
aF0.6734693877551021
aF0.34693877551020413
asa(dp346
S'horse-32'
p347
(lp348
F0.34693877551020413
aF0.18367346938775508
aF0.34693877551020413
aF0.4285714285714286
asa(dp349
S'horse-35'
p350
(lp351
F0.36
aF0.36
aF0.36
aF0.84
asa(dp352
S'horse-34'
p353
(lp354
F0.34693877551020413
aF0.34693877551020413
aF0.34693877551020413
aF0.26530612244897955
asa(dp355
S'horse-37'
p356
(lp357
F0.4
aF0.48
aF0.4
aF0.31999999999999995
asa(dp358
S'horse-36'
p359
(lp360
F0.5918367346938775
aF0.6734693877551021
aF0.5918367346938775
aF0.4285714285714286
asa(dp361
S'car street-12'
p362
(lp363
F0.40740740740740744
aF0.5061728395061729
aF0.40740740740740744
aF0.2592592592592593
asa(dp364
S'bird pond-17'
p365
(lp366
F0.4444444444444444
aF0.33333333333333337
aF0.4444444444444444
aF0.11111111111111116
asa(dp367
S'person kitchen-8'
p368
(lp369
F0.11111111111111116
aF0.11111111111111116
aF0.11111111111111116
aF0.5555555555555556
asa(dp370
S'dog grass-35'
p371
(lp372
F0.125
aF0.25
aF0.125
aF0.0625
asa(dp373
S'person guitar-48'
p374
(lp375
F0.11111111111111116
aF0.308641975308642
aF0.11111111111111116
aF0.3580246913580247
asa(dp376
S'person guitar-49'
p377
(lp378
F0.020408163265306145
aF0.34693877551020413
aF0.020408163265306145
aF0.34693877551020413
asa(dp379
S'car street-11'
p380
(lp381
F0.5061728395061729
aF0.5061728395061729
aF0.5061728395061729
aF0.3580246913580247
asa(dp382
S'person guitar-40'
p383
(lp384
F0.012345679012345734
aF0.308641975308642
aF0.012345679012345734
aF0.308641975308642
asa(dp385
S'person guitar-41'
p386
(lp387
F0.56
aF0.48
aF0.56
aF0.43999999999999995
asa(dp388
S'person guitar-42'
p389
(lp390
F0.2592592592592593
aF0.45679012345679015
aF0.2592592592592593
aF0.5555555555555556
asa(dp391
S'person guitar-43'
p392
(lp393
F0.07999999999999996
aF0.52
aF0.07999999999999996
aF0.16000000000000003
asa(dp394
S'person guitar-44'
p395
(lp396
F0.308641975308642
aF0.45679012345679015
aF0.308641975308642
aF0.6049382716049383
asa(dp397
S'person guitar-45'
p398
(lp399
F0.5625
aF0.625
aF0.5625
aF0.625
asa(dp400
S'person guitar-46'
p401
(lp402
F0.24
aF0.36
aF0.24
aF0.48
asa(dp403
S'person guitar-47'
p404
(lp405
F0.125
aF0.5625
aF0.125
aF0.3125
asa(dp406
S'horse grass-19'
p407
(lp408
F0.6799999999999999
aF0.84
aF0.6799999999999999
aF0.6799999999999999
asa(dp409
S'bird pond-49'
p410
(lp411
F0.26530612244897955
aF0.26530612244897955
aF0.26530612244897955
aF0.18367346938775508
asa(dp412
S'bird pond-48'
p413
(lp414
F0.2222222222222222
aF0.6666666666666667
aF0.2222222222222222
aF0.8888888888888888
asa(dp415
S'dog grass-32'
p416
(lp417
F0.33333333333333337
aF0.33333333333333337
aF0.33333333333333337
aF0.33333333333333337
asa(dp418
S'bird pond-43'
p419
(lp420
F0.3125
aF0.5
aF0.3125
aF0.5625
asa(dp421
S'bird pond-42'
p422
(lp423
F0.5102040816326531
aF0.7551020408163265
aF0.5102040816326531
aF0.6734693877551021
asa(dp424
S'bird pond-41'
p425
(lp426
F0.5
aF0.5
aF0.5
aF0.5
asa(dp427
S'bird pond-40'
p428
(lp429
F0.75
aF0.5
aF0.75
aF0.75
asa(dp430
S'bird pond-47'
p431
(lp432
F0.0625
aF0.375
aF0.0625
aF0.4375
asa(dp433
S'bird pond-46'
p434
(lp435
F0.5555555555555556
aF0.4444444444444444
aF0.5555555555555556
aF0.33333333333333337
asa(dp436
S'bird pond-45'
p437
(lp438
F0.26530612244897955
aF0.26530612244897955
aF0.26530612244897955
aF0.26530612244897955
asa(dp439
S'bird pond-44'
p440
(lp441
F0.36
aF0.52
aF0.36
aF0.6799999999999999
asa(dp442
S'dog-34'
p443
(lp444
F0.5
aF0.25
aF0.5
aF0.75
asa(dp445
S'dog-35'
p446
(lp447
F0.5
aF0.375
aF0.5
aF0.3125
asa(dp448
S'person room-38'
p449
(lp450
F0.1875
aF0.4375
aF0.1875
aF0.0625
asa(dp451
S'sheep grass-15'
p452
(lp453
F0.19999999999999996
aF0.19999999999999996
aF0.19999999999999996
aF0.040000000000000036
asa(dp454
S'sheep grass-14'
p455
(lp456
F0.75
aF1.0
aF0.75
aF0.75
asa(dp457
S'sheep grass-17'
p458
(lp459
F0.5555555555555556
aF0.11111111111111116
aF0.5555555555555556
aF0.11111111111111116
asa(dp460
S'dog-37'
p461
(lp462
F0.36
aF0.36
aF0.36
aF0.040000000000000036
asa(dp463
S'sheep grass-11'
p464
(lp465
F0.52
aF0.040000000000000036
aF0.52
aF0.040000000000000036
asa(dp466
S'sheep grass-10'
p467
(lp468
F0.52
aF0.040000000000000036
aF0.52
aF0.19999999999999996
asa(dp469
S'sheep grass-13'
p470
(lp471
F1.0
aF0.0
aF1.0
aF0.0
asa(dp472
S'sheep grass-12'
p473
(lp474
F0.5555555555555556
aF0.11111111111111116
aF0.5555555555555556
aF0.11111111111111116
asa(dp475
S'sheep grass-19'
p476
(lp477
F0.36
aF0.36
aF0.36
aF0.36
asa(dp478
S'sheep grass-18'
p479
(lp480
F0.6666666666666667
aF0.8888888888888888
aF0.6666666666666667
aF0.6666666666666667
asa(dp481
S'cat-24'
p482
(lp483
F0.1875
aF0.4375
aF0.1875
aF0.1875
asa(dp484
S'horse-9'
p485
(lp486
F0.33333333333333337
aF0.33333333333333337
aF0.33333333333333337
aF0.4444444444444444
asa(dp487
S'horse-8'
p488
(lp489
F0.4285714285714286
aF0.26530612244897955
aF0.4285714285714286
aF0.7551020408163265
asa(dp490
S'horse-7'
p491
(lp492
F0.7777777777777778
aF0.4444444444444444
aF0.7777777777777778
aF0.4444444444444444
asa(dp493
S'horse-6'
p494
(lp495
F0.33333333333333337
aF0.5555555555555556
aF0.33333333333333337
aF0.11111111111111116
asa(dp496
S'horse-5'
p497
(lp498
F0.25
aF0.5625
aF0.25
aF0.1875
asa(dp499
S'sofa-8'
p500
(lp501
F0.8888888888888888
aF0.4444444444444444
aF0.8888888888888888
aF0.4444444444444444
asa(dp502
S'person kitchen-17'
p503
(lp504
F0.11111111111111116
aF0.11111111111111116
aF0.11111111111111116
aF0.11111111111111116
asa(dp505
S'person room-36'
p506
(lp507
F0.25
aF0.25
aF0.25
aF0.1875
asa(dp508
S'person beach-15'
p509
(lp510
F0.34693877551020413
aF0.34693877551020413
aF0.34693877551020413
aF0.26530612244897955
asa(dp511
S'dog-39'
p512
(lp513
F0.6734693877551021
aF0.26530612244897955
aF0.6734693877551021
aF0.5102040816326531
asa(dp514
S'bird-8'
p515
(lp516
F0.26530612244897955
aF0.26530612244897955
aF0.26530612244897955
aF0.020408163265306145
asa(dp517
S'person kitchen-15'
p518
(lp519
F0.25
aF0.25
aF0.25
aF0.75
asa(dp520
S'person room-34'
p521
(lp522
F0.7551020408163265
aF0.26530612244897955
aF0.7551020408163265
aF0.4285714285714286
asa(dp523
S'person kitchen-12'
p524
(lp525
F0.75
aF0.25
aF0.75
aF0.25
asa(dp526
S'person room-35'
p527
(lp528
F0.16049382716049387
aF0.3580246913580247
aF0.16049382716049387
aF0.5061728395061729
asa(dp529
S'person beach-12'
p530
(lp531
F0.625
aF0.75
aF0.625
aF0.375
asa(dp532
S'person kitchen-10'
p533
(lp534
F1.0
aF0.0
aF1.0
aF0.0
asa(dp535
S'cat-26'
p536
(lp537
F0.6875
aF0.5
aF0.6875
aF0.4375
asa(dp538
S'person beach-10'
p539
(lp540
F0.52
aF0.52
aF0.52
aF0.36
asa(dp541
S'bird-9'
p542
(lp543
F0.654320987654321
aF0.7530864197530864
aF0.654320987654321
aF0.5061728395061729
asa(dp544
S'dog grass-48'
p545
(lp546
F0.7777777777777778
aF0.5555555555555556
aF0.7777777777777778
aF0.6666666666666667
asa(dp547
S'dog-5'
p548
(lp549
F0.8367346938775511
aF0.26530612244897955
aF0.8367346938775511
aF0.26530612244897955
asa(dp550
S'dog-6'
p551
(lp552
F0.10204081632653061
aF0.18367346938775508
aF0.10204081632653061
aF0.10204081632653061
asa(dp553
S'dog-7'
p554
(lp555
F0.3125
aF0.1875
aF0.3125
aF0.0625
asa(dp556
S'dog-8'
p557
(lp558
F0.34693877551020413
aF0.34693877551020413
aF0.34693877551020413
aF0.34693877551020413
asa(dp559
S'dog-9'
p560
(lp561
F0.33333333333333337
aF0.4444444444444444
aF0.33333333333333337
aF0.33333333333333337
asa(dp562
S'sofa-6'
p563
(lp564
F0.6666666666666667
aF0.2222222222222222
aF0.6666666666666667
aF0.33333333333333337
asa(dp565
S'sofa-7'
p566
(lp567
F0.5102040816326531
aF0.34693877551020413
aF0.5102040816326531
aF0.26530612244897955
asa(dp568
S'dog snow-11'
p569
(lp570
F0.75
aF0.25
aF0.75
aF0.5
asa(dp571
S'dog snow-19'
p572
(lp573
F0.52
aF0.52
aF0.52
aF0.36
asa(dp574
S'bird pond-32'
p575
(lp576
F0.11111111111111116
aF0.33333333333333337
aF0.11111111111111116
aF0.33333333333333337
asa(dp577
S'bird pond-33'
p578
(lp579
F0.125
aF0.6875
aF0.125
aF0.3125
asa(dp580
S'bird pond-30'
p581
(lp582
F0.020408163265306145
aF0.4285714285714286
aF0.020408163265306145
aF0.4285714285714286
asa(dp583
S'bird pond-31'
p584
(lp585
F0.5555555555555556
aF0.2222222222222222
aF0.5555555555555556
aF0.2222222222222222
asa(dp586
S'bird pond-36'
p587
(lp588
F0.26530612244897955
aF0.7551020408163265
aF0.26530612244897955
aF0.5102040816326531
asa(dp589
S'bird pond-37'
p590
(lp591
F0.10204081632653061
aF0.34693877551020413
aF0.10204081632653061
aF0.26530612244897955
asa(dp592
S'bird pond-34'
p593
(lp594
F0.36
aF0.36
aF0.36
aF0.84
asa(dp595
S'bird pond-35'
p596
(lp597
F0.33333333333333337
aF0.5555555555555556
aF0.33333333333333337
aF0.2222222222222222
asa(dp598
S'bird pond-38'
p599
(lp600
F0.2222222222222222
aF0.4444444444444444
aF0.2222222222222222
aF0.4444444444444444
asa(dp601
S'bird pond-39'
p602
(lp603
F0.26530612244897955
aF0.7551020408163265
aF0.26530612244897955
aF0.4285714285714286
asa(dp604
S'person beach-44'
p605
(lp606
F0.5555555555555556
aF0.2222222222222222
aF0.5555555555555556
aF0.6666666666666667
asa(dp607
S'person beach-7'
p608
(lp609
F0.4375
aF0.0625
aF0.4375
aF0.5625
asa(dp610
S'person beach-6'
p611
(lp612
F0.6799999999999999
aF0.19999999999999996
aF0.6799999999999999
aF0.19999999999999996
asa(dp613
S'person beach-5'
p614
(lp615
F0.5555555555555556
aF0.4444444444444444
aF0.5555555555555556
aF0.2222222222222222
asa(dp616
S'horse grass-28'
p617
(lp618
F1.0
aF0.5555555555555556
aF1.0
aF0.11111111111111116
asa(dp619
S'horse grass-26'
p620
(lp621
F0.5555555555555556
aF0.11111111111111116
aF0.5555555555555556
aF0.11111111111111116
asa(dp622
S'horse grass-27'
p623
(lp624
F1.0
aF1.0
aF1.0
aF1.0
asa(dp625
S'horse grass-24'
p626
(lp627
F0.5
aF0.5
aF0.5
aF0.5
asa(dp628
S'horse grass-25'
p629
(lp630
F1.0
aF1.0
aF1.0
aF0.0
asa(dp631
S'horse grass-22'
p632
(lp633
F1.0
aF0.0
aF1.0
aF0.0
asa(dp634
S'horse grass-23'
p635
(lp636
F0.5555555555555556
aF0.11111111111111116
aF0.5555555555555556
aF0.5555555555555556
asa(dp637
S'person beach-9'
p638
(lp639
F0.19999999999999996
aF0.36
aF0.19999999999999996
aF0.36
asa(dp640
S'person beach-8'
p641
(lp642
F0.2222222222222222
aF0.33333333333333337
aF0.2222222222222222
aF0.5555555555555556
asa(dp643
S'sheep-5'
p644
(lp645
F0.5
aF0.5
aF0.5
aF0.0
asa(dp646
S'sheep-7'
p647
(lp648
F0.19999999999999996
aF0.36
aF0.19999999999999996
aF0.36
asa(dp649
S'sheep-6'
p650
(lp651
F0.0
aF1.0
aF0.0
aF0.0
asa(dp652
S'sheep-9'
p653
(lp654
F0.84
aF0.36
aF0.84
aF0.36
asa(dp655
S'sheep-8'
p656
(lp657
F0.75
aF0.25
aF0.75
aF0.5
asa(dp658
S'person basketball-23'
p659
(lp660
F0.6734693877551021
aF0.5918367346938775
aF0.6734693877551021
aF0.8367346938775511
asa(dp661
S'sheep-41'
p662
(lp663
F0.52
aF0.52
aF0.52
aF0.36
asa(dp664
S'person basketball-21'
p665
(lp666
F0.6666666666666667
aF0.8888888888888888
aF0.6666666666666667
aF0.7777777777777778
asa(dp667
S'person basketball-20'
p668
(lp669
F0.6799999999999999
aF0.6799999999999999
aF0.6799999999999999
aF0.6799999999999999
asa(dp670
S'person basketball-27'
p671
(lp672
F0.19999999999999996
aF0.6799999999999999
aF0.19999999999999996
aF0.36
asa(dp673
S'person basketball-26'
p674
(lp675
F0.34693877551020413
aF0.34693877551020413
aF0.34693877551020413
aF0.5102040816326531
asa(dp676
S'person basketball-25'
p677
(lp678
F1.0
aF1.0
aF1.0
aF0.5555555555555556
asa(dp679
S'person basketball-24'
p680
(lp681
F0.6734693877551021
aF0.6734693877551021
aF0.6734693877551021
aF0.6734693877551021
asa(dp682
S'cat-6'
p683
(lp684
F0.625
aF0.625
aF0.625
aF0.375
asa(dp685
S'car-5'
p686
(lp687
F0.5102040816326531
aF0.5918367346938775
aF0.5102040816326531
aF0.4285714285714286
asa(dp688
S'cat-5'
p689
(lp690
F0.33333333333333337
aF0.11111111111111116
aF0.33333333333333337
aF0.2222222222222222
asa(dp691
S'bird-7'
p692
(lp693
F0.3125
aF0.125
aF0.3125
aF0.0625
asa(dp694
S'sheep-19'
p695
(lp696
F0.6799999999999999
aF0.6799999999999999
aF0.6799999999999999
aF0.6799999999999999
asa(dp697
S'sheep-18'
p698
(lp699
F0.33333333333333337
aF0.6666666666666667
aF0.33333333333333337
aF0.5555555555555556
asa(dp700
S'dog snow-38'
p701
(lp702
F0.36
aF0.52
aF0.36
aF0.36
asa(dp703
S'sheep-15'
p704
(lp705
F0.5918367346938775
aF0.5102040816326531
aF0.5918367346938775
aF0.10204081632653061
asa(dp706
S'sheep-14'
p707
(lp708
F0.75
aF1.0
aF0.75
aF0.75
asa(dp709
S'sheep-17'
p710
(lp711
F0.6799999999999999
aF0.36
aF0.6799999999999999
aF0.040000000000000036
asa(dp712
S'sheep-16'
p713
(lp714
F0.25
aF0.25
aF0.25
aF0.5
asa(dp715
S'sheep-11'
p716
(lp717
F0.6734693877551021
aF0.18367346938775508
aF0.6734693877551021
aF0.34693877551020413
asa(dp718
S'sheep-10'
p719
(lp720
F0.5555555555555556
aF0.4444444444444444
aF0.5555555555555556
aF0.2222222222222222
asa(dp721
S'sheep-13'
p722
(lp723
F0.5555555555555556
aF0.11111111111111116
aF0.5555555555555556
aF0.11111111111111116
asa(dp724
S'horse grass-38'
p725
(lp726
F0.5
aF0.25
aF0.5
aF0.5
asa(dp727
S'person-47'
p728
(lp729
F0.125
aF0.375
aF0.125
aF0.25
asa(dp730
S'sheep grass-8'
p731
(lp732
F0.52
aF0.52
aF0.52
aF0.040000000000000036
asa(dp733
S'horse grass-34'
p734
(lp735
F0.5555555555555556
aF0.11111111111111116
aF0.5555555555555556
aF0.11111111111111116
asa(dp736
S'dog grass-49'
p737
(lp738
F0.5555555555555556
aF0.2098765432098766
aF0.5555555555555556
aF0.40740740740740744
asa(dp739
S'bird-44'
p740
(lp741
F0.26530612244897955
aF0.4285714285714286
aF0.26530612244897955
aF0.26530612244897955
asa(dp742
S'dog water-46'
p743
(lp744
F0.5555555555555556
aF1.0
aF0.5555555555555556
aF0.5555555555555556
asa(dp745
S'bird-46'
p746
(lp747
F0.4285714285714286
aF0.4285714285714286
aF0.4285714285714286
aF0.34693877551020413
asa(dp748
S'dog water-41'
p749
(lp750
F0.0
aF0.0
aF0.0
aF1.0
asa(dp751
S'bird-43'
p752
(lp753
F0.3125
aF0.3125
aF0.3125
aF0.1875
asa(dp754
S'bird-42'
p755
(lp756
F0.5061728395061729
aF0.5061728395061729
aF0.5061728395061729
aF0.40740740740740744
asa(dp757
S'person kitchen-22'
p758
(lp759
F0.5555555555555556
aF0.5555555555555556
aF0.5555555555555556
aF0.5555555555555556
asa(dp760
S'dog grass-42'
p761
(lp762
F0.2098765432098766
aF0.40740740740740744
aF0.2098765432098766
aF0.40740740740740744
asa(dp763
S'dog water-48'
p764
(lp765
F0.040000000000000036
aF0.84
aF0.040000000000000036
aF0.52
asa(dp766
S'bird-48'
p767
(lp768
F0.5
aF0.25
aF0.5
aF0.25
asa(dp769
S'person kitchen-25'
p770
(lp771
F0.0
aF0.0
aF0.0
aF1.0
asa(dp772
S'dog grass-46'
p773
(lp774
F0.52
aF0.36
aF0.52
aF0.6799999999999999
asa(dp775
S'sofa-18'
p776
(lp777
F0.4375
aF0.0625
aF0.4375
aF0.5
asa(dp778
S'person basketball-46'
p779
(lp780
F0.6799999999999999
aF0.52
aF0.6799999999999999
aF0.52
asa(dp781
S'dog grass-12'
p782
(lp783
F0.0
aF0.4444444444444444
aF0.0
aF0.2222222222222222
asa(dp784
S'person basketball-5'
p785
(lp786
F0.5
aF0.75
aF0.5
aF0.5
asa(dp787
S'sofa-12'
p788
(lp789
F0.5
aF0.5
aF0.5
aF0.25
asa(dp790
S'sofa-13'
p791
(lp792
F0.5
aF0.75
aF0.5
aF0.25
asa(dp793
S'sofa-10'
p794
(lp795
F0.84
aF0.36
aF0.84
aF0.040000000000000036
asa(dp796
S'sofa-11'
p797
(lp798
F0.6666666666666667
aF0.0
aF0.6666666666666667
aF0.4444444444444444
asa(dp799
S'sofa-16'
p800
(lp801
F0.6666666666666667
aF0.2222222222222222
aF0.6666666666666667
aF0.2222222222222222
asa(dp802
S'sofa-17'
p803
(lp804
F0.5
aF0.25
aF0.5
aF0.75
asa(dp805
S'sofa-14'
p806
(lp807
F0.5555555555555556
aF0.11111111111111116
aF0.5555555555555556
aF0.2222222222222222
asa(dp808
S'sofa-15'
p809
(lp810
F0.52
aF0.36
aF0.52
aF0.19999999999999996
asa(dp811
S'person guitar-17'
p812
(lp813
F0.3580246913580247
aF0.40740740740740744
aF0.3580246913580247
aF0.5061728395061729
asa(dp814
S'dog grass-20'
p815
(lp816
F0.5555555555555556
aF0.33333333333333337
aF0.5555555555555556
aF0.4444444444444444
asa(dp817
S'sheep grass-39'
p818
(lp819
F0.84
aF0.52
aF0.84
aF0.36
asa(dp820
S'person guitar-16'
p821
(lp822
F0.40740740740740744
aF0.45679012345679015
aF0.40740740740740744
aF0.5555555555555556
asa(dp823
S'sheep grass-38'
p824
(lp825
F0.0
aF0.5
aF0.0
aF0.5
asa(dp826
S'person guitar-15'
p827
(lp828
F0.48
aF0.6799999999999999
aF0.48
aF0.31999999999999995
asa(dp829
S'dog water-31'
p830
(lp831
F0.0
aF1.0
aF0.0
aF1.0
asa(dp832
S'dog water-30'
p833
(lp834
F0.0
aF1.0
aF0.0
aF0.0
asa(dp835
S'person guitar-14'
p836
(lp837
F0.6049382716049383
aF0.308641975308642
aF0.6049382716049383
aF0.5061728395061729
asa(dp838
S'dog water-35'
p839
(lp840
F1.0
aF1.0
aF1.0
aF1.0
asa(dp841
S'dog water-37'
p842
(lp843
F0.11111111111111116
aF1.0
aF0.11111111111111116
aF1.0
asa(dp844
S'dog water-36'
p845
(lp846
F0.11111111111111116
aF0.11111111111111116
aF0.11111111111111116
aF1.0
asa(dp847
S'dog water-38'
p848
(lp849
F0.25
aF0.5
aF0.25
aF0.5
asa(dp850
S'person guitar-12'
p851
(lp852
F0.5625
aF0.375
aF0.5625
aF0.4375
asa(dp853
S'bird grass-6'
p854
(lp855
F0.5
aF0.75
aF0.5
aF0.5
asa(dp856
S'sheep grass-33'
p857
(lp858
F0.25
aF0.0
aF0.25
aF0.0
asa(dp859
S'person guitar-10'
p860
(lp861
F0.5555555555555556
aF0.308641975308642
aF0.5555555555555556
aF0.2098765432098766
asa(dp862
S'cat-37'
p863
(lp864
F0.5061728395061729
aF0.40740740740740744
aF0.5061728395061729
aF0.2098765432098766
asa(dp865
S'dog snow-16'
p866
(lp867
F1.0
aF1.0
aF1.0
aF0.11111111111111116
asa(dp868
S'dog water-44'
p869
(lp870
F0.0
aF0.0
aF0.0
aF0.5
asa(dp871
S'car street-18'
p872
(lp873
F0.375
aF0.5
aF0.375
aF0.25
asa(dp874
S'car street-19'
p875
(lp876
F0.40740740740740744
aF0.308641975308642
aF0.40740740740740744
aF0.45679012345679015
asa(dp877
S'dog grass-38'
p878
(lp879
F0.19999999999999996
aF0.19999999999999996
aF0.19999999999999996
aF0.19999999999999996
asa(dp880
S'dog grass-39'
p881
(lp882
F0.5102040816326531
aF0.4285714285714286
aF0.5102040816326531
aF0.5918367346938775
asa(dp883
S'dog grass-34'
p884
(lp885
F0.2222222222222222
aF0.33333333333333337
aF0.2222222222222222
aF0.4444444444444444
asa(dp886
S'car street-13'
p887
(lp888
F0.5
aF0.625
aF0.5
aF0.5625
asa(dp889
S'dog grass-36'
p890
(lp891
F0.11111111111111116
aF0.11111111111111116
aF0.11111111111111116
aF0.5555555555555556
asa(dp892
S'dog grass-37'
p893
(lp894
F0.5555555555555556
aF0.4444444444444444
aF0.5555555555555556
aF0.5555555555555556
asa(dp895
S'car street-16'
p896
(lp897
F0.45679012345679015
aF0.3580246913580247
aF0.45679012345679015
aF0.3580246913580247
asa(dp898
S'dog grass-31'
p899
(lp900
F0.25
aF0.4375
aF0.25
aF0.1875
asa(dp901
S'car street-14'
p902
(lp903
F0.33333333333333337
aF0.5555555555555556
aF0.33333333333333337
aF0.2222222222222222
asa(dp904
S'car street-15'
p905
(lp906
F0.45679012345679015
aF0.45679012345679015
aF0.45679012345679015
aF0.5061728395061729
asa(dp907
S'dog water-6'
p908
(lp909
F0.040000000000000036
aF0.36
aF0.040000000000000036
aF0.52
asa(dp910
S'dog water-5'
p911
(lp912
F1.0
aF1.0
aF1.0
aF0.0
asa(dp913
S'dog-30'
p914
(lp915
F0.18367346938775508
aF0.26530612244897955
aF0.18367346938775508
aF0.18367346938775508
asa(dp916
S'dog-31'
p917
(lp918
F0.020408163265306145
aF0.5918367346938775
aF0.020408163265306145
aF0.5102040816326531
asa(dp919
S'dog-32'
p920
(lp921
F0.4444444444444444
aF0.5555555555555556
aF0.4444444444444444
aF0.4444444444444444
asa(dp922
S'dog-33'
p923
(lp924
F0.75
aF0.75
aF0.75
aF0.75
asa(dp925
S'person room-32'
p926
(lp927
F0.45679012345679015
aF0.7530864197530864
aF0.45679012345679015
aF0.654320987654321
asa(dp928
S'person room-33'
p929
(lp930
F0.24
aF0.4
aF0.24
aF0.36
asa(dp931
S'person room-30'
p932
(lp933
F0.012345679012345734
aF0.012345679012345734
aF0.012345679012345734
aF0.16049382716049387
asa(dp934
S'person room-31'
p935
(lp936
F0.16049382716049387
aF0.654320987654321
aF0.16049382716049387
aF0.45679012345679015
asa(dp937
S'dog-38'
p938
(lp939
F0.5
aF0.6875
aF0.5
aF0.625
asa(dp940
S'person room-37'
p941
(lp942
F0.11111111111111116
aF0.06172839506172845
aF0.11111111111111116
aF0.40740740740740744
asa(dp943
S'dog water-9'
p944
(lp945
F0.11111111111111116
aF0.11111111111111116
aF0.11111111111111116
aF0.5555555555555556
asa(dp946
S'dog water-8'
p947
(lp948
F0.25
aF0.0
aF0.25
aF0.5
asa(dp949
S'car grass-23'
p950
(lp951
F0.75
aF1.0
aF0.75
aF0.75
asa(dp952
S'car grass-19'
p953
(lp954
F0.52
aF0.84
aF0.52
aF1.0
asa(dp955
S'dog grass-33'
p956
(lp957
F0.625
aF0.6875
aF0.625
aF0.3125
asa(dp958
S'cat-27'
p959
(lp960
F0.25
aF1.0
aF0.25
aF0.0
asa(dp961
S'bird-35'
p962
(lp963
F0.10204081632653061
aF0.4285714285714286
aF0.10204081632653061
aF0.020408163265306145
asa(dp964
S'bird grass-30'
p965
(lp966
F0.11111111111111116
aF0.11111111111111116
aF0.11111111111111116
aF1.0
asa(dp967
S'bird grass-31'
p968
(lp969
F0.25
aF0.25
aF0.25
aF0.25
asa(dp970
S'bird grass-32'
p971
(lp972
F0.36
aF0.84
aF0.36
aF0.52
asa(dp973
S'bird grass-33'
p974
(lp975
F0.5555555555555556
aF0.5555555555555556
aF0.5555555555555556
aF0.5555555555555556
asa(dp976
S'bird grass-34'
p977
(lp978
F0.10204081632653061
aF0.5102040816326531
aF0.10204081632653061
aF0.6734693877551021
asa(dp979
S'bird grass-35'
p980
(lp981
F0.11111111111111116
aF0.11111111111111116
aF0.11111111111111116
aF0.11111111111111116
asa(dp982
S'bird grass-36'
p983
(lp984
F0.25
aF0.75
aF0.25
aF0.25
asa(dp985
S'bird grass-37'
p986
(lp987
F0.5
aF0.75
aF0.5
aF0.75
asa(dp988
S'bird grass-38'
p989
(lp990
F0.5555555555555556
aF1.0
aF0.5555555555555556
aF0.5555555555555556
asa(dp991
S'dog snow-18'
p992
(lp993
F0.0
aF0.25
aF0.0
aF0.0
asa(dp994
S'car grass-26'
p995
(lp996
F0.0
aF0.25
aF0.0
aF0.5
asa(dp997
S'car grass-25'
p998
(lp999
F1.0
aF0.11111111111111116
aF1.0
aF0.11111111111111116
asa(dp1000
S'cat-22'
p1001
(lp1002
F0.5918367346938775
aF0.4285714285714286
aF0.5918367346938775
aF0.34693877551020413
asa(dp1003
S'bird-36'
p1004
(lp1005
F0.31999999999999995
aF0.19999999999999996
aF0.31999999999999995
aF0.16000000000000003
asa(dp1006
S'dog snow-14'
p1007
(lp1008
F0.5555555555555556
aF0.11111111111111116
aF0.5555555555555556
aF0.11111111111111116
asa(dp1009
S'dog snow-15'
p1010
(lp1011
F1.0
aF0.5555555555555556
aF1.0
aF0.5555555555555556
asa(dp1012
S'car grass-29'
p1013
(lp1014
F1.0
aF0.0
aF1.0
aF1.0
asa(dp1015
S'dog snow-17'
p1016
(lp1017
F0.2222222222222222
aF0.4444444444444444
aF0.2222222222222222
aF0.0
asa(dp1018
S'dog snow-10'
p1019
(lp1020
F0.52
aF0.36
aF0.52
aF0.36
asa(dp1021
S'cat-28'
p1022
(lp1023
F0.75
aF0.5
aF0.75
aF0.75
asa(dp1024
S'dog snow-12'
p1025
(lp1026
F0.0
aF0.0
aF0.0
aF0.0
asa(dp1027
S'dog snow-13'
p1028
(lp1029
F0.5
aF0.25
aF0.5
aF0.25
asa(dp1030
S'cat-25'
p1031
(lp1032
F0.5625
aF0.625
aF0.5625
aF0.8125
asa(dp1033
S'car grass-21'
p1034
(lp1035
F1.0
aF1.0
aF1.0
aF1.0
asa(dp1036
S'car grass-20'
p1037
(lp1038
F1.0
aF1.0
aF1.0
aF1.0
asa(dp1039
S'car grass-27'
p1040
(lp1041
F0.11111111111111116
aF1.0
aF0.11111111111111116
aF0.5555555555555556
asa(dp1042
S'cat-20'
p1043
(lp1044
F0.7777777777777778
aF0.4444444444444444
aF0.7777777777777778
aF0.4444444444444444
asa(dp1045
S'cat-23'
p1046
(lp1047
F0.34693877551020413
aF0.5102040816326531
aF0.34693877551020413
aF0.4285714285714286
asa(dp1048
S'car grass-24'
p1049
(lp1050
F0.5
aF0.75
aF0.5
aF0.5
asa(dp1051
S'car street-8'
p1052
(lp1053
F0.4
aF0.4
aF0.4
aF0.64
asa(dp1054
S'person-49'
p1055
(lp1056
F0.4
aF0.31999999999999995
aF0.4
aF0.4
asa(dp1057
S'person-48'
p1058
(lp1059
F0.48
aF0.6799999999999999
aF0.48
aF0.56
asa(dp1060
S'person basketball-17'
p1061
(lp1062
F0.7777777777777778
aF0.5555555555555556
aF0.7777777777777778
aF0.5555555555555556
asa(dp1063
S'person-45'
p1064
(lp1065
F0.3125
aF0.375
aF0.3125
aF0.3125
asa(dp1066
S'person-44'
p1067
(lp1068
F0.2592592592592593
aF0.45679012345679015
aF0.2592592592592593
aF0.6049382716049383
asa(dp1069
S'bird-37'
p1070
(lp1071
F0.375
aF0.4375
aF0.375
aF0.5
asa(dp1072
S'person-46'
p1073
(lp1074
F0.3580246913580247
aF0.5555555555555556
aF0.3580246913580247
aF0.3580246913580247
asa(dp1075
S'person-41'
p1076
(lp1077
F0.4
aF0.56
aF0.4
aF0.36
asa(dp1078
S'person-40'
p1079
(lp1080
F0.24
aF0.52
aF0.24
aF0.48
asa(dp1081
S'person-43'
p1082
(lp1083
F0.4
aF0.72
aF0.4
aF0.36
asa(dp1084
S'person-42'
p1085
(lp1086
F0.3125
aF0.375
aF0.3125
aF0.4375
asa(dp1087
S'horse-48'
p1088
(lp1089
F0.6666666666666667
aF0.11111111111111116
aF0.6666666666666667
aF0.11111111111111116
asa(dp1090
S'horse-49'
p1091
(lp1092
F0.75
aF0.625
aF0.75
aF0.6875
asa(dp1093
S'dog snow-30'
p1094
(lp1095
F0.5555555555555556
aF0.11111111111111116
aF0.5555555555555556
aF0.11111111111111116
asa(dp1096
S'dog water-27'
p1097
(lp1098
F0.040000000000000036
aF0.52
aF0.040000000000000036
aF0.6799999999999999
asa(dp1099
S'horse-44'
p1100
(lp1101
F0.6875
aF0.3125
aF0.6875
aF0.375
asa(dp1102
S'horse-45'
p1103
(lp1104
F0.7037037037037037
aF0.3580246913580247
aF0.7037037037037037
aF0.45679012345679015
asa(dp1105
S'horse-46'
p1106
(lp1107
F0.4375
aF0.625
aF0.4375
aF0.625
asa(dp1108
S'horse-47'
p1109
(lp1110
F0.5102040816326531
aF0.5102040816326531
aF0.5102040816326531
aF0.34693877551020413
asa(dp1111
S'horse-40'
p1112
(lp1113
F0.5102040816326531
aF0.34693877551020413
aF0.5102040816326531
aF0.18367346938775508
asa(dp1114
S'horse-41'
p1115
(lp1116
F0.4375
aF0.3125
aF0.4375
aF0.1875
asa(dp1117
S'horse-42'
p1118
(lp1119
F0.125
aF0.3125
aF0.125
aF0.1875
asa(dp1120
S'horse-43'
p1121
(lp1122
F0.18367346938775508
aF0.34693877551020413
aF0.18367346938775508
aF0.020408163265306145
asa(dp1123
S'bird grass-45'
p1124
(lp1125
F0.4444444444444444
aF0.33333333333333337
aF0.4444444444444444
aF0.6666666666666667
asa(dp1126
S'bird grass-44'
p1127
(lp1128
F0.040000000000000036
aF0.6799999999999999
aF0.040000000000000036
aF0.52
asa(dp1129
S'bird grass-47'
p1130
(lp1131
F0.040000000000000036
aF0.6799999999999999
aF0.040000000000000036
aF1.0
asa(dp1132
S'bird grass-46'
p1133
(lp1134
F0.36
aF0.36
aF0.36
aF0.52
asa(dp1135
S'bird grass-41'
p1136
(lp1137
F0.52
aF0.36
aF0.52
aF0.52
asa(dp1138
S'bird grass-40'
p1139
(lp1140
F0.0
aF0.0
aF0.0
aF0.0
asa(dp1141
S'bird grass-43'
p1142
(lp1143
F0.25
aF0.5
aF0.25
aF0.5
asa(dp1144
S'bird grass-42'
p1145
(lp1146
F0.6799999999999999
aF0.36
aF0.6799999999999999
aF0.52
asa(dp1147
S'sheep-33'
p1148
(lp1149
F0.4444444444444444
aF0.4444444444444444
aF0.4444444444444444
aF0.2222222222222222
asa(dp1150
S'bird grass-49'
p1151
(lp1152
F1.0
aF0.84
aF1.0
aF0.36
asa(dp1153
S'bird grass-48'
p1154
(lp1155
F0.19999999999999996
aF0.36
aF0.19999999999999996
aF0.84
asa(dp1156
S'cat-34'
p1157
(lp1158
F0.3580246913580247
aF0.6049382716049383
aF0.3580246913580247
aF0.45679012345679015
asa(dp1159
S'dog snow-31'
p1160
(lp1161
F1.0
aF0.0
aF1.0
aF0.0
asa(dp1162
S'cat-49'
p1163
(lp1164
F0.5555555555555556
aF0.5555555555555556
aF0.5555555555555556
aF0.2222222222222222
asa(dp1165
S'cat-48'
p1166
(lp1167
F0.4375
aF0.4375
aF0.4375
aF0.4375
asa(dp1168
S'bird-31'
p1169
(lp1170
F0.654320987654321
aF0.40740740740740744
aF0.654320987654321
aF0.40740740740740744
asa(dp1171
S'sheep grass-20'
p1172
(lp1173
F0.0
aF0.5
aF0.0
aF0.5
asa(dp1174
S'sheep grass-21'
p1175
(lp1176
F0.5555555555555556
aF0.5555555555555556
aF0.5555555555555556
aF1.0
asa(dp1177
S'sheep grass-22'
p1178
(lp1179
F0.25
aF0.0
aF0.25
aF0.0
asa(dp1180
S'sheep grass-23'
p1181
(lp1182
F0.5555555555555556
aF0.5555555555555556
aF0.5555555555555556
aF0.11111111111111116
asa(dp1183
S'sheep grass-24'
p1184
(lp1185
F0.0
aF0.5
aF0.0
aF0.75
asa(dp1186
S'sheep grass-25'
p1187
(lp1188
F1.0
aF0.25
aF1.0
aF0.25
asa(dp1189
S'sheep grass-26'
p1190
(lp1191
F0.11111111111111116
aF0.11111111111111116
aF0.11111111111111116
aF0.11111111111111116
asa(dp1192
S'sheep grass-27'
p1193
(lp1194
F0.36
aF0.36
aF0.36
aF0.52
asa(dp1195
S'sheep grass-28'
p1196
(lp1197
F0.5555555555555556
aF1.0
aF0.5555555555555556
aF0.5555555555555556
asa(dp1198
S'sheep grass-29'
p1199
(lp1200
F0.5
aF0.25
aF0.5
aF0.25
asa(dp1201
S'sheep-38'
p1202
(lp1203
F0.7777777777777778
aF0.4444444444444444
aF0.7777777777777778
aF0.33333333333333337
asa(dp1204
S'person basketball-18'
p1205
(lp1206
F0.5
aF0.75
aF0.5
aF0.5
asa(dp1207
S'cat-39'
p1208
(lp1209
F0.26530612244897955
aF0.34693877551020413
aF0.26530612244897955
aF0.4285714285714286
asa(dp1210
S'sheep-24'
p1211
(lp1212
F0.8367346938775511
aF0.26530612244897955
aF0.8367346938775511
aF0.5918367346938775
asa(dp1213
S'dog grass-9'
p1214
(lp1215
F0.3125
aF0.25
aF0.3125
aF0.4375
asa(dp1216
S'sheep-26'
p1217
(lp1218
F0.2222222222222222
aF0.5555555555555556
aF0.2222222222222222
aF0.5555555555555556
asa(dp1219
S'sheep-27'
p1220
(lp1221
F0.2222222222222222
aF0.2222222222222222
aF0.2222222222222222
aF0.11111111111111116
asa(dp1222
S'sheep-20'
p1223
(lp1224
F1.0
aF0.5
aF1.0
aF1.0
asa(dp1225
S'sheep-21'
p1226
(lp1227
F0.75
aF0.25
aF0.75
aF0.75
asa(dp1228
S'sheep-22'
p1229
(lp1230
F0.75
aF0.25
aF0.75
aF0.25
asa(dp1231
S'sheep-23'
p1232
(lp1233
F0.36
aF0.84
aF0.36
aF0.36
asa(dp1234
S'cat-47'
p1235
(lp1236
F0.6799999999999999
aF0.36
aF0.6799999999999999
aF0.36
asa(dp1237
S'dog grass-5'
p1238
(lp1239
F0.11111111111111116
aF0.33333333333333337
aF0.11111111111111116
aF0.11111111111111116
asa(dp1240
S'dog grass-6'
p1241
(lp1242
F0.18367346938775508
aF0.34693877551020413
aF0.18367346938775508
aF0.5102040816326531
asa(dp1243
S'dog grass-7'
p1244
(lp1245
F0.5102040816326531
aF0.18367346938775508
aF0.5102040816326531
aF0.26530612244897955
asa(dp1246
S'person basketball-19'
p1247
(lp1248
F0.52
aF0.36
aF0.52
aF0.52
asa(dp1249
S'sheep-25'
p1250
(lp1251
F1.0
aF0.11111111111111116
aF1.0
aF0.5555555555555556
asa(dp1252
S'sofa-23'
p1253
(lp1254
F1.0
aF0.25
aF1.0
aF0.25
asa(dp1255
S'sofa-22'
p1256
(lp1257
F0.7551020408163265
aF0.4285714285714286
aF0.7551020408163265
aF0.4285714285714286
asa(dp1258
S'sofa-21'
p1259
(lp1260
F0.375
aF0.0625
aF0.375
aF0.3125
asa(dp1261
S'sofa-20'
p1262
(lp1263
F0.6666666666666667
aF0.11111111111111116
aF0.6666666666666667
aF0.2222222222222222
asa(dp1264
S'sofa-27'
p1265
(lp1266
F0.6734693877551021
aF0.4285714285714286
aF0.6734693877551021
aF0.26530612244897955
asa(dp1267
S'sofa-26'
p1268
(lp1269
F0.5555555555555556
aF0.5555555555555556
aF0.5555555555555556
aF0.6666666666666667
asa(dp1270
S'bird-18'
p1271
(lp1272
F0.31999999999999995
aF0.16000000000000003
aF0.31999999999999995
aF0.28
asa(dp1273
S'sofa-24'
p1274
(lp1275
F0.6666666666666667
aF0.11111111111111116
aF0.6666666666666667
aF0.11111111111111116
asa(dp1276
S'bird-16'
p1277
(lp1278
F0.40740740740740744
aF0.45679012345679015
aF0.40740740740740744
aF0.6049382716049383
asa(dp1279
S'bird-17'
p1280
(lp1281
F0.375
aF0.375
aF0.375
aF0.125
asa(dp1282
S'sofa-29'
p1283
(lp1284
F0.6666666666666667
aF0.2222222222222222
aF0.6666666666666667
aF0.2222222222222222
asa(dp1285
S'bird-15'
p1286
(lp1287
F0.5
aF0.75
aF0.5
aF0.625
asa(dp1288
S'bird-12'
p1289
(lp1290
F0.125
aF0.1875
aF0.125
aF0.125
asa(dp1291
S'bird-13'
p1292
(lp1293
F0.06172839506172845
aF0.16049382716049387
aF0.06172839506172845
aF0.012345679012345734
asa(dp1294
S'bird-10'
p1295
(lp1296
F0.31999999999999995
aF0.43999999999999995
aF0.31999999999999995
aF0.31999999999999995
asa(dp1297
S'bird-11'
p1298
(lp1299
F0.125
aF0.1875
aF0.125
aF0.0625
asa(dp1300
S'bird-34'
p1301
(lp1302
F0.5
aF0.375
aF0.5
aF0.0625
asa(dp1303
S'bird pond-6'
p1304
(lp1305
F0.33333333333333337
aF0.4444444444444444
aF0.33333333333333337
aF0.33333333333333337
asa(dp1306
S'bird pond-7'
p1307
(lp1308
F0.0
aF0.6875
aF0.0
aF0.4375
asa(dp1309
S'bird pond-5'
p1310
(lp1311
F0.16049382716049387
aF0.16049382716049387
aF0.16049382716049387
aF0.2098765432098766
asa(dp1312
S'bird pond-8'
p1313
(lp1314
F0.52
aF0.52
aF0.52
aF0.040000000000000036
asa(dp1315
S'bird pond-9'
p1316
(lp1317
F0.36
aF0.52
aF0.36
aF0.36
asa(dp1318
S'dog grass-18'
p1319
(lp1320
F0.10204081632653061
aF0.6734693877551021
aF0.10204081632653061
aF0.34693877551020413
asa(dp1321
S'person beach-48'
p1322
(lp1323
F0.45679012345679015
aF0.7530864197530864
aF0.45679012345679015
aF0.40740740740740744
asa(dp1324
S'person beach-49'
p1325
(lp1326
F0.5918367346938775
aF0.020408163265306145
aF0.5918367346938775
aF0.4285714285714286
asa(dp1327
S'dog grass-19'
p1328
(lp1329
F0.33333333333333337
aF0.4444444444444444
aF0.33333333333333337
aF0.6666666666666667
asa(dp1330
S'dog snow-8'
p1331
(lp1332
F0.0
aF0.25
aF0.0
aF0.5
asa(dp1333
S'dog snow-9'
p1334
(lp1335
F0.25
aF0.5
aF0.25
aF0.25
asa(dp1336
S'person beach-40'
p1337
(lp1338
F0.11111111111111116
aF0.33333333333333337
aF0.11111111111111116
aF0.11111111111111116
asa(dp1339
S'car grass-28'
p1340
(lp1341
F1.0
aF1.0
aF1.0
aF1.0
asa(dp1342
S'person beach-43'
p1343
(lp1344
F0.25
aF0.0625
aF0.25
aF0.0625
asa(dp1345
S'person beach-45'
p1346
(lp1347
F0.26530612244897955
aF0.18367346938775508
aF0.26530612244897955
aF0.26530612244897955
asa(dp1348
S'person beach-46'
p1349
(lp1350
F0.33333333333333337
aF0.5555555555555556
aF0.33333333333333337
aF0.11111111111111116
asa(dp1351
S'car street-17'
p1352
(lp1353
F0.308641975308642
aF0.2592592592592593
aF0.308641975308642
aF0.2592592592592593
asa(dp1354
S'car street-36'
p1355
(lp1356
F0.5555555555555556
aF0.33333333333333337
aF0.5555555555555556
aF0.5555555555555556
asa(dp1357
S'bird-33'
p1358
(lp1359
F0.375
aF0.3125
aF0.375
aF0.25
asa(dp1360
S'cat-8'
p1361
(lp1362
F0.4375
aF0.75
aF0.4375
aF0.4375
asa(dp1363
S'car-41'
p1364
(lp1365
F0.4444444444444444
aF0.11111111111111116
aF0.4444444444444444
aF0.4444444444444444
asa(dp1366
S'car-40'
p1367
(lp1368
F0.6875
aF0.0
aF0.6875
aF0.125
asa(dp1369
S'car-43'
p1370
(lp1371
F0.45679012345679015
aF0.16049382716049387
aF0.45679012345679015
aF0.3580246913580247
asa(dp1372
S'car-42'
p1373
(lp1374
F0.5102040816326531
aF0.10204081632653061
aF0.5102040816326531
aF0.10204081632653061
asa(dp1375
S'car-45'
p1376
(lp1377
F0.625
aF0.1875
aF0.625
aF0.3125
asa(dp1378
S'car-44'
p1379
(lp1380
F0.6666666666666667
aF0.7777777777777778
aF0.6666666666666667
aF0.4444444444444444
asa(dp1381
S'car-47'
p1382
(lp1383
F0.375
aF0.375
aF0.375
aF0.3125
asa(dp1384
S'car-46'
p1385
(lp1386
F0.2592592592592593
aF0.2098765432098766
aF0.2592592592592593
aF0.3580246913580247
asa(dp1387
S'car-49'
p1388
(lp1389
F0.4375
aF0.5625
aF0.4375
aF0.25
asa(dp1390
S'car-48'
p1391
(lp1392
F0.33333333333333337
aF0.33333333333333337
aF0.33333333333333337
aF0.33333333333333337
asa(dp1393
S'dog grass-16'
p1394
(lp1395
F0.020408163265306145
aF0.18367346938775508
aF0.020408163265306145
aF0.10204081632653061
asa(dp1396
S'bird-39'
p1397
(lp1398
F0.2098765432098766
aF0.11111111111111116
aF0.2098765432098766
aF0.2098765432098766
asa(dp1399
S'cat-21'
p1400
(lp1401
F0.2222222222222222
aF0.11111111111111116
aF0.2222222222222222
aF0.2222222222222222
asa(dp1402
S'sheep-12'
p1403
(lp1404
F0.5
aF0.25
aF0.5
aF0.25
asa(dp1405
S'person room-14'
p1406
(lp1407
F0.3125
aF0.3125
aF0.3125
aF0.25
asa(dp1408
S'person room-15'
p1409
(lp1410
F0.45679012345679015
aF0.2098765432098766
aF0.45679012345679015
aF0.2592592592592593
asa(dp1411
S'bird-23'
p1412
(lp1413
F0.18367346938775508
aF0.4285714285714286
aF0.18367346938775508
aF0.18367346938775508
asa(dp1414
S'car-8'
p1415
(lp1416
F0.52
aF0.19999999999999996
aF0.52
aF0.52
asa(dp1417
S'horse grass-7'
p1418
(lp1419
F0.33333333333333337
aF0.4444444444444444
aF0.33333333333333337
aF0.4444444444444444
asa(dp1420
S'cat-33'
p1421
(lp1422
F0.4285714285714286
aF0.4285714285714286
aF0.4285714285714286
aF0.34693877551020413
asa(dp1423
S'bird pond-24'
p1424
(lp1425
F0.18367346938775508
aF0.4285714285714286
aF0.18367346938775508
aF0.4285714285714286
asa(dp1426
S'bird pond-27'
p1427
(lp1428
F1.0
aF0.75
aF1.0
aF0.75
asa(dp1429
S'bird-5'
p1430
(lp1431
F0.48
aF0.24
aF0.48
aF0.19999999999999996
asa(dp1432
S'bird-6'
p1433
(lp1434
F0.4
aF0.36
aF0.4
aF0.19999999999999996
asa(dp1435
S'horse grass-39'
p1436
(lp1437
F0.11111111111111116
aF0.11111111111111116
aF0.11111111111111116
aF0.11111111111111116
asa(dp1438
S'horse grass-35'
p1439
(lp1440
F0.5
aF0.5
aF0.5
aF0.5
asa(dp1441
S'bird pond-21'
p1442
(lp1443
F0.040000000000000036
aF0.36
aF0.040000000000000036
aF0.36
asa(dp1444
S'horse grass-37'
p1445
(lp1446
F1.0
aF0.11111111111111116
aF1.0
aF1.0
asa(dp1447
S'horse grass-36'
p1448
(lp1449
F0.5555555555555556
aF0.11111111111111116
aF0.5555555555555556
aF0.11111111111111116
asa(dp1450
S'horse grass-31'
p1451
(lp1452
F0.36
aF0.36
aF0.36
aF0.36
asa(dp1453
S'horse grass-30'
p1454
(lp1455
F1.0
aF0.11111111111111116
aF1.0
aF0.11111111111111116
asa(dp1456
S'horse grass-33'
p1457
(lp1458
F1.0
aF0.0
aF1.0
aF0.0
asa(dp1459
S'horse grass-32'
p1460
(lp1461
F0.11111111111111116
aF0.11111111111111116
aF0.11111111111111116
aF0.11111111111111116
asa(dp1462
S'bird grass-5'
p1463
(lp1464
F0.11111111111111116
aF1.0
aF0.11111111111111116
aF0.5555555555555556
asa(dp1465
S'person guitar-11'
p1466
(lp1467
F0.308641975308642
aF0.5555555555555556
aF0.308641975308642
aF0.5061728395061729
asa(dp1468
S'bird grass-7'
p1469
(lp1470
F0.36
aF0.6799999999999999
aF0.36
aF0.52
asa(dp1471
S'bird grass-8'
p1472
(lp1473
F0.040000000000000036
aF0.19999999999999996
aF0.040000000000000036
aF0.36
asa(dp1474
S'bird grass-9'
p1475
(lp1476
F0.5
aF0.5
aF0.5
aF0.5
asa(dp1477
S'bird pond-22'
p1478
(lp1479
F0.19999999999999996
aF0.36
aF0.19999999999999996
aF1.0
asa(dp1480
S'person guitar-19'
p1481
(lp1482
F0.40740740740740744
aF0.45679012345679015
aF0.40740740740740744
aF0.45679012345679015
asa(dp1483
S'person guitar-18'
p1484
(lp1485
F0.45679012345679015
aF0.5061728395061729
aF0.45679012345679015
aF0.308641975308642
asa(dp1486
S'car street-5'
p1487
(lp1488
F0.6734693877551021
aF0.10204081632653061
aF0.6734693877551021
aF0.5102040816326531
asa(dp1489
S'car street-6'
p1490
(lp1491
F0.5555555555555556
aF0.4444444444444444
aF0.5555555555555556
aF0.6666666666666667
asa(dp1492
S'car street-7'
p1493
(lp1494
F0.4375
aF0.3125
aF0.4375
aF0.6875
asa(dp1495
S'person basketball-16'
p1496
(lp1497
F0.52
aF0.36
aF0.52
aF0.36
asa(dp1498
S'car street-9'
p1499
(lp1500
F0.11111111111111116
aF0.5555555555555556
aF0.11111111111111116
aF0.33333333333333337
asa(dp1501
S'person basketball-14'
p1502
(lp1503
F0.75
aF0.75
aF0.75
aF0.5
asa(dp1504
S'person basketball-15'
p1505
(lp1506
F0.5
aF0.5625
aF0.5
aF0.625
asa(dp1507
S'person basketball-12'
p1508
(lp1509
F0.5555555555555556
aF0.6666666666666667
aF0.5555555555555556
aF0.33333333333333337
asa(dp1510
S'person basketball-13'
p1511
(lp1512
F1.0
aF0.5
aF1.0
aF0.25
asa(dp1513
S'person basketball-10'
p1514
(lp1515
F0.75
aF0.5
aF0.75
aF0.5
asa(dp1516
S'person basketball-11'
p1517
(lp1518
F0.4444444444444444
aF0.2222222222222222
aF0.4444444444444444
aF0.33333333333333337
asa(dp1519
S'horse-13'
p1520
(lp1521
F0.2592592592592593
aF0.5555555555555556
aF0.2592592592592593
aF0.2098765432098766
asa(dp1522
S'horse-12'
p1523
(lp1524
F0.6875
aF0.5
aF0.6875
aF0.4375
asa(dp1525
S'horse-11'
p1526
(lp1527
F0.5918367346938775
aF0.34693877551020413
aF0.5918367346938775
aF0.4285714285714286
asa(dp1528
S'horse-10'
p1529
(lp1530
F0.625
aF0.375
aF0.625
aF0.3125
asa(dp1531
S'horse-17'
p1532
(lp1533
F0.5555555555555556
aF0.5555555555555556
aF0.5555555555555556
aF0.5555555555555556
asa(dp1534
S'horse-16'
p1535
(lp1536
F0.5555555555555556
aF0.308641975308642
aF0.5555555555555556
aF0.45679012345679015
asa(dp1537
S'horse-15'
p1538
(lp1539
F0.4444444444444444
aF0.4444444444444444
aF0.4444444444444444
aF0.4444444444444444
asa(dp1540
S'horse-14'
p1541
(lp1542
F0.4375
aF0.375
aF0.4375
aF0.375
asa(dp1543
S'person beach-35'
p1544
(lp1545
F0.6799999999999999
aF0.36
aF0.6799999999999999
aF0.36
asa(dp1546
S'horse-19'
p1547
(lp1548
F0.5102040816326531
aF0.020408163265306145
aF0.5102040816326531
aF0.26530612244897955
asa(dp1549
S'horse-18'
p1550
(lp1551
F0.5918367346938775
aF0.5102040816326531
aF0.5918367346938775
aF0.4285714285714286
asa(dp1552
S'person kitchen-39'
p1553
(lp1554
F0.040000000000000036
aF0.36
aF0.040000000000000036
aF0.040000000000000036
asa(dp1555
S'sofa-44'
p1556
(lp1557
F0.52
aF0.52
aF0.52
aF0.36
asa(dp1558
S'bird grass-39'
p1559
(lp1560
F0.2222222222222222
aF0.4444444444444444
aF0.2222222222222222
aF0.6666666666666667
asa(dp1561
S'bird pond-29'
p1562
(lp1563
F0.0
aF0.33333333333333337
aF0.0
aF0.4444444444444444
asa(dp1564
S'bird pond-28'
p1565
(lp1566
F0.11111111111111116
aF0.2222222222222222
aF0.11111111111111116
aF0.2222222222222222
asa(dp1567
S'horse grass-9'
p1568
(lp1569
F1.0
aF0.0
aF1.0
aF1.0
asa(dp1570
S'horse grass-8'
p1571
(lp1572
F0.19999999999999996
aF0.52
aF0.19999999999999996
aF0.19999999999999996
asa(dp1573
S'bird pond-25'
p1574
(lp1575
F0.19999999999999996
aF0.52
aF0.19999999999999996
aF0.6799999999999999
asa(dp1576
S'horse grass-6'
p1577
(lp1578
F0.75
aF0.25
aF0.75
aF0.0
asa(dp1579
S'horse grass-5'
p1580
(lp1581
F0.11111111111111116
aF0.11111111111111116
aF0.11111111111111116
aF0.11111111111111116
asa(dp1582
S'bird pond-26'
p1583
(lp1584
F0.0
aF0.25
aF0.0
aF0.5
asa(dp1585
S'bird pond-20'
p1586
(lp1587
F0.11111111111111116
aF0.2222222222222222
aF0.11111111111111116
aF0.4444444444444444
asa(dp1588
S'bird pond-23'
p1589
(lp1590
F0.5
aF0.25
aF0.5
aF0.5
asa(dp1591
S'person beach-31'
p1592
(lp1593
F0.4285714285714286
aF0.5102040816326531
aF0.4285714285714286
aF0.7551020408163265
asa(dp1594
S'person beach-30'
p1595
(lp1596
F0.5
aF0.0
aF0.5
aF0.5
asa(dp1597
S'person beach-33'
p1598
(lp1599
F0.5102040816326531
aF0.5102040816326531
aF0.5102040816326531
aF0.34693877551020413
asa(dp1600
S'person beach-32'
p1601
(lp1602
F0.5102040816326531
aF0.34693877551020413
aF0.5102040816326531
aF0.5102040816326531
asa(dp1603
S'person beach-34'
p1604
(lp1605
F0.5918367346938775
aF0.8367346938775511
aF0.5918367346938775
aF0.8367346938775511
asa(dp1606
S'person beach-37'
p1607
(lp1608
F0.6799999999999999
aF0.040000000000000036
aF0.6799999999999999
aF0.19999999999999996
asa(dp1609
S'person beach-36'
p1610
(lp1611
F0.5555555555555556
aF0.11111111111111116
aF0.5555555555555556
aF0.4444444444444444
asa(dp1612
S'person beach-39'
p1613
(lp1614
F0.5918367346938775
aF0.26530612244897955
aF0.5918367346938775
aF0.6734693877551021
asa(dp1615
S'person kitchen-37'
p1616
(lp1617
F1.0
aF1.0
aF1.0
aF0.0
asa(dp1618
S'person kitchen-30'
p1619
(lp1620
F0.75
aF0.75
aF0.75
aF0.25
asa(dp1621
S'car grass-18'
p1622
(lp1623
F1.0
aF1.0
aF1.0
aF1.0
asa(dp1624
S'person beach-16'
p1625
(lp1626
F1.0
aF0.52
aF1.0
aF0.6799999999999999
asa(dp1627
S'person room-18'
p1628
(lp1629
F0.2098765432098766
aF0.40740740740740744
aF0.2098765432098766
aF0.3580246913580247
asa(dp1630
S'dog-19'
p1631
(lp1632
F0.45679012345679015
aF0.308641975308642
aF0.45679012345679015
aF0.40740740740740744
asa(dp1633
S'dog water-47'
p1634
(lp1635
F1.0
aF0.0
aF1.0
aF1.0
asa(dp1636
S'car-18'
p1637
(lp1638
F0.040000000000000036
aF0.6799999999999999
aF0.040000000000000036
aF0.19999999999999996
asa(dp1639
S'cat-16'
p1640
(lp1641
F0.4444444444444444
aF0.33333333333333337
aF0.4444444444444444
aF0.7777777777777778
asa(dp1642
S'bird-27'
p1643
(lp1644
F0.5555555555555556
aF0.308641975308642
aF0.5555555555555556
aF0.16049382716049387
asa(dp1645
S'car street-26'
p1646
(lp1647
F0.4375
aF0.3125
aF0.4375
aF0.5
asa(dp1648
S'bird-25'
p1649
(lp1650
F0.19999999999999996
aF0.36
aF0.19999999999999996
aF0.36
asa(dp1651
S'bird-24'
p1652
(lp1653
F0.4
aF0.31999999999999995
aF0.4
aF0.31999999999999995
asa(dp1654
S'car street-23'
p1655
(lp1656
F0.43999999999999995
aF0.36
aF0.43999999999999995
aF0.52
asa(dp1657
S'horse grass-20'
p1658
(lp1659
F0.5555555555555556
aF0.11111111111111116
aF0.5555555555555556
aF0.11111111111111116
asa(dp1660
S'bird-47'
p1661
(lp1662
F0.16049382716049387
aF0.3580246913580247
aF0.16049382716049387
aF0.3580246913580247
asa(dp1663
S'car street-20'
p1664
(lp1665
F0.375
aF0.5
aF0.375
aF0.625
asa(dp1666
S'dog grass-27'
p1667
(lp1668
F0.375
aF0.5625
aF0.375
aF0.3125
asa(dp1669
S'dog grass-26'
p1670
(lp1671
F0.4444444444444444
aF0.4444444444444444
aF0.4444444444444444
aF0.6666666666666667
asa(dp1672
S'dog grass-25'
p1673
(lp1674
F0.654320987654321
aF0.40740740740740744
aF0.654320987654321
aF0.40740740740740744
asa(dp1675
S'horse grass-21'
p1676
(lp1677
F1.0
aF0.0
aF1.0
aF1.0
asa(dp1678
S'dog grass-23'
p1679
(lp1680
F0.0
aF0.4444444444444444
aF0.0
aF0.11111111111111116
asa(dp1681
S'dog grass-22'
p1682
(lp1683
F0.3580246913580247
aF0.308641975308642
aF0.3580246913580247
aF0.45679012345679015
asa(dp1684
S'dog grass-21'
p1685
(lp1686
F0.040000000000000036
aF0.040000000000000036
aF0.040000000000000036
aF0.52
asa(dp1687
S'car street-28'
p1688
(lp1689
F0.40740740740740744
aF0.45679012345679015
aF0.40740740740740744
aF0.654320987654321
asa(dp1690
S'person room-29'
p1691
(lp1692
F0.3580246913580247
aF0.2592592592592593
aF0.3580246913580247
aF0.45679012345679015
asa(dp1693
S'dog-22'
p1694
(lp1695
F0.6799999999999999
aF0.36
aF0.6799999999999999
aF0.19999999999999996
asa(dp1696
S'dog-21'
p1697
(lp1698
F0.0
aF0.4444444444444444
aF0.0
aF0.0
asa(dp1699
S'dog-20'
p1700
(lp1701
F0.5555555555555556
aF0.11111111111111116
aF0.5555555555555556
aF0.2222222222222222
asa(dp1702
S'dog-27'
p1703
(lp1704
F0.5
aF0.5
aF0.5
aF0.5
asa(dp1705
S'dog-26'
p1706
(lp1707
F0.34693877551020413
aF0.4285714285714286
aF0.34693877551020413
aF0.18367346938775508
asa(dp1708
S'dog-25'
p1709
(lp1710
F0.040000000000000036
aF0.040000000000000036
aF0.040000000000000036
aF0.19999999999999996
asa(dp1711
S'dog-24'
p1712
(lp1713
F0.2222222222222222
aF0.4444444444444444
aF0.2222222222222222
aF0.4444444444444444
asa(dp1714
S'person room-21'
p1715
(lp1716
F0.11111111111111116
aF0.2222222222222222
aF0.11111111111111116
aF0.4444444444444444
asa(dp1717
S'person room-20'
p1718
(lp1719
F0.4
aF0.040000000000000036
aF0.4
aF0.12
asa(dp1720
S'dog-29'
p1721
(lp1722
F0.19999999999999996
aF0.52
aF0.19999999999999996
aF0.52
asa(dp1723
S'person room-22'
p1724
(lp1725
F0.308641975308642
aF0.2592592592592593
aF0.308641975308642
aF0.40740740740740744
asa(dp1726
S'person room-25'
p1727
(lp1728
F0.5102040816326531
aF0.34693877551020413
aF0.5102040816326531
aF0.18367346938775508
asa(dp1729
S'person room-24'
p1730
(lp1731
F0.125
aF0.3125
aF0.125
aF0.1875
asa(dp1732
S'person room-27'
p1733
(lp1734
F0.36
aF0.24
aF0.36
aF0.36
asa(dp1735
S'person room-26'
p1736
(lp1737
F0.2222222222222222
aF0.2222222222222222
aF0.2222222222222222
aF0.0
asa(dp1738
S'person kitchen-49'
p1739
(lp1740
F1.0
aF1.0
aF1.0
aF1.0
asa(dp1741
S'person kitchen-48'
p1742
(lp1743
F0.0
aF0.5
aF0.0
aF0.25
asa(dp1744
S'person kitchen-41'
p1745
(lp1746
F1.0
aF0.5555555555555556
aF1.0
aF1.0
asa(dp1747
S'person kitchen-40'
p1748
(lp1749
F0.5555555555555556
aF0.5555555555555556
aF0.5555555555555556
aF1.0
asa(dp1750
S'person kitchen-43'
p1751
(lp1752
F1.0
aF0.0
aF1.0
aF1.0
asa(dp1753
S'person kitchen-42'
p1754
(lp1755
F0.75
aF0.25
aF0.75
aF0.5
asa(dp1756
S'person kitchen-45'
p1757
(lp1758
F1.0
aF0.0
aF1.0
aF0.0
asa(dp1759
S'person kitchen-44'
p1760
(lp1761
F0.5
aF0.25
aF0.5
aF0.25
asa(dp1762
S'person kitchen-47'
p1763
(lp1764
F0.040000000000000036
aF0.19999999999999996
aF0.040000000000000036
aF0.84
asa(dp1765
S'person kitchen-46'
p1766
(lp1767
F0.25
aF0.75
aF0.25
aF1.0
asa(dp1768
S'horse grass-17'
p1769
(lp1770
F0.36
aF0.52
aF0.36
aF0.52
asa(dp1771
S'car street-21'
p1772
(lp1773
F0.11111111111111116
aF0.5555555555555556
aF0.11111111111111116
aF0.5555555555555556
asa(dp1774
S'dog snow-29'
p1775
(lp1776
F0.11111111111111116
aF0.5555555555555556
aF0.11111111111111116
aF0.11111111111111116
asa(dp1777
S'dog snow-28'
p1778
(lp1779
F0.5555555555555556
aF0.5555555555555556
aF0.5555555555555556
aF0.5555555555555556
asa(dp1780
S'dog snow-21'
p1781
(lp1782
F0.5
aF0.25
aF0.5
aF0.5
asa(dp1783
S'dog snow-20'
p1784
(lp1785
F0.5555555555555556
aF0.33333333333333337
aF0.5555555555555556
aF0.2222222222222222
asa(dp1786
S'dog snow-23'
p1787
(lp1788
F0.5555555555555556
aF0.11111111111111116
aF0.5555555555555556
aF0.11111111111111116
asa(dp1789
S'dog snow-22'
p1790
(lp1791
F0.19999999999999996
aF0.6799999999999999
aF0.19999999999999996
aF0.52
asa(dp1792
S'dog snow-25'
p1793
(lp1794
F1.0
aF0.11111111111111116
aF1.0
aF0.11111111111111116
asa(dp1795
S'dog snow-24'
p1796
(lp1797
F0.25
aF0.0
aF0.25
aF0.0
asa(dp1798
S'dog snow-27'
p1799
(lp1800
F0.5555555555555556
aF0.11111111111111116
aF0.5555555555555556
aF0.11111111111111116
asa(dp1801
S'dog snow-26'
p1802
(lp1803
F0.5
aF1.0
aF0.5
aF0.0
asa(dp1804
S'car grass-16'
p1805
(lp1806
F1.0
aF0.0
aF1.0
aF0.0
asa(dp1807
S'cat-19'
p1808
(lp1809
F0.5555555555555556
aF0.33333333333333337
aF0.5555555555555556
aF0.4444444444444444
asa(dp1810
S'car grass-14'
p1811
(lp1812
F1.0
aF1.0
aF1.0
aF0.5555555555555556
asa(dp1813
S'car grass-15'
p1814
(lp1815
F0.84
aF0.6799999999999999
aF0.84
aF0.52
asa(dp1816
S'car grass-13'
p1817
(lp1818
F1.0
aF1.0
aF1.0
aF1.0
asa(dp1819
S'car grass-10'
p1820
(lp1821
F0.36
aF0.19999999999999996
aF0.36
aF0.19999999999999996
asa(dp1822
S'car grass-11'
p1823
(lp1824
F1.0
aF1.0
aF1.0
aF1.0
asa(dp1825
S'car-30'
p1826
(lp1827
F0.5555555555555556
aF0.308641975308642
aF0.5555555555555556
aF0.308641975308642
asa(dp1828
S'cat-11'
p1829
(lp1830
F0.5
aF0.75
aF0.5
aF0.625
asa(dp1831
S'car-32'
p1832
(lp1833
F0.5102040816326531
aF0.34693877551020413
aF0.5102040816326531
aF0.4285714285714286
asa(dp1834
S'cat-13'
p1835
(lp1836
F0.11111111111111116
aF0.5555555555555556
aF0.11111111111111116
aF0.4444444444444444
asa(dp1837
S'cat-14'
p1838
(lp1839
F0.6875
aF0.375
aF0.6875
aF0.3125
asa(dp1840
S'cat-15'
p1841
(lp1842
F0.6734693877551021
aF0.5918367346938775
aF0.6734693877551021
aF0.5918367346938775
asa(dp1843
S'car-36'
p1844
(lp1845
F0.3125
aF0.0625
aF0.3125
aF0.25
asa(dp1846
S'car-37'
p1847
(lp1848
F0.7551020408163265
aF0.4285714285714286
aF0.7551020408163265
aF0.34693877551020413
asa(dp1849
S'bird-40'
p1850
(lp1851
F0.6666666666666667
aF0.2222222222222222
aF0.6666666666666667
aF0.33333333333333337
asa(dp1852
S'person basketball-22'
p1853
(lp1854
F0.33333333333333337
aF0.4444444444444444
aF0.33333333333333337
aF0.4444444444444444
asa(dp1855
S'car-17'
p1856
(lp1857
F0.33333333333333337
aF0.5555555555555556
aF0.33333333333333337
aF0.5555555555555556
asa(dp1858
S'horse grass-48'
p1859
(lp1860
F0.7777777777777778
aF0.4444444444444444
aF0.7777777777777778
aF0.4444444444444444
asa(dp1861
S'car-14'
p1862
(lp1863
F0.4375
aF0.5
aF0.4375
aF0.4375
asa(dp1864
S'car-22'
p1865
(lp1866
F0.4375
aF0.375
aF0.4375
aF0.25
asa(dp1867
S'bird pond-14'
p1868
(lp1869
F0.5555555555555556
aF0.33333333333333337
aF0.5555555555555556
aF0.2222222222222222
asa(dp1870
S'bird pond-15'
p1871
(lp1872
F0.11111111111111116
aF0.2222222222222222
aF0.11111111111111116
aF0.33333333333333337
asa(dp1873
S'bird pond-16'
p1874
(lp1875
F0.0625
aF0.5
aF0.0625
aF0.25
asa(dp1876
S'car-15'
p1877
(lp1878
F0.75
aF0.4375
aF0.75
aF0.3125
asa(dp1879
S'bird pond-10'
p1880
(lp1881
F0.18367346938775508
aF0.26530612244897955
aF0.18367346938775508
aF0.34693877551020413
asa(dp1882
S'bird pond-11'
p1883
(lp1884
F0.020408163265306145
aF0.18367346938775508
aF0.020408163265306145
aF0.26530612244897955
asa(dp1885
S'bird pond-12'
p1886
(lp1887
F0.36
aF0.6799999999999999
aF0.36
aF0.6799999999999999
asa(dp1888
S'bird pond-13'
p1889
(lp1890
F0.2098765432098766
aF0.5555555555555556
aF0.2098765432098766
aF0.6049382716049383
asa(dp1891
S'car grass-9'
p1892
(lp1893
F1.0
aF0.0
aF1.0
aF0.0
asa(dp1894
S'car-12'
p1895
(lp1896
F0.1875
aF0.5625
aF0.1875
aF0.5625
asa(dp1897
S'car-20'
p1898
(lp1899
F0.6734693877551021
aF0.34693877551020413
aF0.6734693877551021
aF0.5102040816326531
asa(dp1900
S'bird pond-18'
p1901
(lp1902
F0.7777777777777778
aF0.2222222222222222
aF0.7777777777777778
aF0.33333333333333337
asa(dp1903
S'bird pond-19'
p1904
(lp1905
F0.10204081632653061
aF0.020408163265306145
aF0.10204081632653061
aF0.10204081632653061
asa(dp1906
S'car grass-35'
p1907
(lp1908
F0.75
aF0.75
aF0.75
aF0.5
asa(dp1909
S'sheep grass-48'
p1910
(lp1911
F0.11111111111111116
aF0.5555555555555556
aF0.11111111111111116
aF0.5555555555555556
asa(dp1912
S'horse grass-44'
p1913
(lp1914
F0.11111111111111116
aF0.5555555555555556
aF0.11111111111111116
aF0.11111111111111116
asa(dp1915
S'car-10'
p1916
(lp1917
F0.6875
aF0.5625
aF0.6875
aF0.625
asa(dp1918
S'horse grass-45'
p1919
(lp1920
F0.19999999999999996
aF0.19999999999999996
aF0.19999999999999996
aF0.6799999999999999
asa(dp1921
S'bird-49'
p1922
(lp1923
F0.308641975308642
aF0.3580246913580247
aF0.308641975308642
aF0.2592592592592593
asa(dp1924
S'horse grass-18'
p1925
(lp1926
F0.6799999999999999
aF0.36
aF0.6799999999999999
aF0.52
asa(dp1927
S'dog snow-34'
p1928
(lp1929
F0.19999999999999996
aF0.040000000000000036
aF0.19999999999999996
aF0.040000000000000036
asa(dp1930
S'car-9'
p1931
(lp1932
F0.625
aF0.25
aF0.625
aF0.8125
asa(dp1933
S'dog snow-35'
p1934
(lp1935
F0.11111111111111116
aF0.11111111111111116
aF0.11111111111111116
aF0.11111111111111116
asa(dp1936
S'cat-17'
p1937
(lp1938
F0.5102040816326531
aF0.5918367346938775
aF0.5102040816326531
aF0.18367346938775508
asa(dp1939
S'horse grass-40'
p1940
(lp1941
F0.11111111111111116
aF0.11111111111111116
aF0.11111111111111116
aF0.11111111111111116
asa(dp1942
S'cat-9'
p1943
(lp1944
F0.19999999999999996
aF0.19999999999999996
aF0.19999999999999996
aF0.36
asa(dp1945
S'dog snow-33'
p1946
(lp1947
F0.2222222222222222
aF0.2222222222222222
aF0.2222222222222222
aF0.2222222222222222
asa(dp1948
S'sheep grass-5'
p1949
(lp1950
F0.0
aF0.0
aF0.0
aF1.0
asa(dp1951
S'sheep grass-7'
p1952
(lp1953
F0.6799999999999999
aF0.52
aF0.6799999999999999
aF0.36
asa(dp1954
S'sheep grass-6'
p1955
(lp1956
F0.0
aF1.0
aF0.0
aF1.0
asa(dp1957
S'cat-7'
p1958
(lp1959
F0.8888888888888888
aF0.11111111111111116
aF0.8888888888888888
aF0.2222222222222222
asa(dp1960
S'sheep grass-9'
p1961
(lp1962
F0.19999999999999996
aF0.36
aF0.19999999999999996
aF0.36
asa(dp1963
S'car-6'
p1964
(lp1965
F0.5918367346938775
aF0.5918367346938775
aF0.5918367346938775
aF0.5102040816326531
asa(dp1966
S'person basketball-45'
p1967
(lp1968
F0.6799999999999999
aF0.19999999999999996
aF0.6799999999999999
aF0.040000000000000036
asa(dp1969
S'person basketball-44'
p1970
(lp1971
F0.5
aF0.0
aF0.5
aF0.25
asa(dp1972
S'person basketball-47'
p1973
(lp1974
F0.5102040816326531
aF0.7551020408163265
aF0.5102040816326531
aF0.4285714285714286
asa(dp1975
S'car-7'
p1976
(lp1977
F0.33333333333333337
aF0.4444444444444444
aF0.33333333333333337
aF0.2222222222222222
asa(dp1978
S'person basketball-41'
p1979
(lp1980
F0.11111111111111116
aF0.33333333333333337
aF0.11111111111111116
aF0.2222222222222222
asa(dp1981
S'person basketball-40'
p1982
(lp1983
F0.26530612244897955
aF0.26530612244897955
aF0.26530612244897955
aF0.26530612244897955
asa(dp1984
S'person basketball-43'
p1985
(lp1986
F0.5
aF0.5
aF0.5
aF0.25
asa(dp1987
S'person basketball-42'
p1988
(lp1989
F0.5918367346938775
aF0.5918367346938775
aF0.5918367346938775
aF0.4285714285714286
asa(dp1990
S'sheep grass-37'
p1991
(lp1992
F0.75
aF0.0
aF0.75
aF0.25
asa(dp1993
S'sheep grass-36'
p1994
(lp1995
F1.0
aF1.0
aF1.0
aF0.5555555555555556
asa(dp1996
S'sheep grass-35'
p1997
(lp1998
F0.5
aF0.5
aF0.5
aF0.25
asa(dp1999
S'sheep grass-34'
p2000
(lp2001
F0.52
aF0.040000000000000036
aF0.52
aF0.19999999999999996
asa(dp2002
S'person basketball-49'
p2003
(lp2004
F0.4444444444444444
aF0.7777777777777778
aF0.4444444444444444
aF0.6666666666666667
asa(dp2005
S'person basketball-48'
p2006
(lp2007
F0.7551020408163265
aF0.5918367346938775
aF0.7551020408163265
aF0.5102040816326531
asa(dp2008
S'sheep grass-31'
p2009
(lp2010
F0.6799999999999999
aF0.36
aF0.6799999999999999
aF0.040000000000000036
asa(dp2011
S'person-30'
p2012
(lp2013
F0.5061728395061729
aF0.16049382716049387
aF0.5061728395061729
aF0.654320987654321
asa(dp2014
S'car grass-33'
p2015
(lp2016
F0.5555555555555556
aF1.0
aF0.5555555555555556
aF1.0
asa(dp2017
S'person guitar-34'
p2018
(lp2019
F0.125
aF0.1875
aF0.125
aF0.4375
asa(dp2020
S'person-32'
p2021
(lp2022
F0.40740740740740744
aF0.2098765432098766
aF0.40740740740740744
aF0.16049382716049387
asa(dp2023
S'sheep-37'
p2024
(lp2025
F0.5
aF0.75
aF0.5
aF0.25
asa(dp2026
S'sheep-35'
p2027
(lp2028
F0.33333333333333337
aF0.6666666666666667
aF0.33333333333333337
aF0.4444444444444444
asa(dp2029
S'person guitar-36'
p2030
(lp2031
F0.4
aF0.19999999999999996
aF0.4
aF0.36
asa(dp2032
S'dog grass-30'
p2033
(lp2034
F0.25
aF0.5625
aF0.25
aF0.5
asa(dp2035
S'sheep-32'
p2036
(lp2037
F0.5555555555555556
aF0.11111111111111116
aF0.5555555555555556
aF0.5555555555555556
asa(dp2038
S'sheep-31'
p2039
(lp2040
F0.25
aF0.5
aF0.25
aF0.5
asa(dp2041
S'sheep-30'
p2042
(lp2043
F0.0
aF0.75
aF0.0
aF0.75
asa(dp2044
S'person guitar-31'
p2045
(lp2046
F0.40740740740740744
aF0.3580246913580247
aF0.40740740740740744
aF0.3580246913580247
asa(dp2047
S'sheep-39'
p2048
(lp2049
F0.6666666666666667
aF0.4444444444444444
aF0.6666666666666667
aF0.11111111111111116
asa(dp2050
S'person-35'
p2051
(lp2052
F0.5555555555555556
aF0.5555555555555556
aF0.5555555555555556
aF0.7530864197530864
asa(dp2053
S'cat-18'
p2054
(lp2055
F0.5061728395061729
aF0.5061728395061729
aF0.5061728395061729
aF0.45679012345679015
asa(dp2056
S'dog grass-28'
p2057
(lp2058
F0.28
aF0.24
aF0.28
aF0.24
asa(dp2059
S'car grass-36'
p2060
(lp2061
F1.0
aF1.0
aF1.0
aF1.0
asa(dp2062
S'person guitar-33'
p2063
(lp2064
F0.308641975308642
aF0.40740740740740744
aF0.308641975308642
aF0.308641975308642
asa(dp2065
S'person guitar-32'
p2066
(lp2067
F0.3580246913580247
aF0.5061728395061729
aF0.3580246913580247
aF0.654320987654321
asa(dp2068
S'bird-21'
p2069
(lp2070
F0.5555555555555556
aF0.5061728395061729
aF0.5555555555555556
aF0.308641975308642
asa(dp2071
S'sheep-28'
p2072
(lp2073
F0.36
aF0.52
aF0.36
aF0.36
asa(dp2074
S'bird-20'
p2075
(lp2076
F0.18367346938775508
aF0.10204081632653061
aF0.18367346938775508
aF0.020408163265306145
asa(dp2077
S'sheep-29'
p2078
(lp2079
F0.25
aF0.75
aF0.25
aF0.75
asa(dp2080
S'sofa-30'
p2081
(lp2082
F0.5
aF0.4375
aF0.5
aF0.4375
asa(dp2083
S'sofa-31'
p2084
(lp2085
F0.5918367346938775
aF0.5918367346938775
aF0.5918367346938775
aF0.18367346938775508
asa(dp2086
S'sofa-32'
p2087
(lp2088
F0.4285714285714286
aF0.10204081632653061
aF0.4285714285714286
aF0.34693877551020413
asa(dp2089
S'sofa-33'
p2090
(lp2091
F0.5918367346938775
aF0.020408163265306145
aF0.5918367346938775
aF0.18367346938775508
asa(dp2092
S'sofa-34'
p2093
(lp2094
F0.5
aF0.25
aF0.5
aF0.0
asa(dp2095
S'sofa-35'
p2096
(lp2097
F0.4444444444444444
aF0.2222222222222222
aF0.4444444444444444
aF0.2222222222222222
asa(dp2098
S'sofa-36'
p2099
(lp2100
F0.6799999999999999
aF0.36
aF0.6799999999999999
aF0.19999999999999996
asa(dp2101
S'sofa-37'
p2102
(lp2103
F0.5625
aF0.75
aF0.5625
aF0.3125
asa(dp2104
S'car street-34'
p2105
(lp2106
F0.2098765432098766
aF0.308641975308642
aF0.2098765432098766
aF0.654320987654321
asa(dp2107
S'sofa-39'
p2108
(lp2109
F0.375
aF0.3125
aF0.375
aF0.375
asa(dp2110
S'dog water-49'
p2111
(lp2112
F0.11111111111111116
aF0.11111111111111116
aF0.11111111111111116
aF0.11111111111111116
asa(dp2113
S'dog grass-8'
p2114
(lp2115
F0.375
aF0.3125
aF0.375
aF0.5625
asa(dp2116
S'car-31'
p2117
(lp2118
F0.24
aF0.6
aF0.24
aF0.56
asa(dp2119
S'horse grass-11'
p2120
(lp2121
F0.25
aF0.5
aF0.25
aF0.5
asa(dp2122
S'dog water-19'
p2123
(lp2124
F0.0
aF1.0
aF0.0
aF1.0
asa(dp2125
S'dog water-18'
p2126
(lp2127
F0.11111111111111116
aF0.5555555555555556
aF0.11111111111111116
aF0.5555555555555556
asa(dp2128
S'car street-35'
p2129
(lp2130
F0.31999999999999995
aF0.4
aF0.31999999999999995
aF0.52
asa(dp2131
S'dog water-13'
p2132
(lp2133
F0.0
aF0.0
aF0.0
aF0.0
asa(dp2134
S'dog water-12'
p2135
(lp2136
F0.19999999999999996
aF0.040000000000000036
aF0.19999999999999996
aF0.52
asa(dp2137
S'dog water-11'
p2138
(lp2139
F0.0
aF0.0
aF0.0
aF0.0
asa(dp2140
S'dog water-10'
p2141
(lp2142
F0.52
aF0.36
aF0.52
aF0.36
asa(dp2143
S'dog water-17'
p2144
(lp2145
F0.11111111111111116
aF0.11111111111111116
aF0.11111111111111116
aF0.11111111111111116
asa(dp2146
S'dog water-16'
p2147
(lp2148
F0.4285714285714286
aF0.4285714285714286
aF0.4285714285714286
aF0.5918367346938775
asa(dp2149
S'dog water-15'
p2150
(lp2151
F0.0
aF1.0
aF0.0
aF0.0
asa(dp2152
S'dog water-14'
p2153
(lp2154
F0.11111111111111116
aF0.5555555555555556
aF0.11111111111111116
aF1.0
asa(dp2155
S'person-27'
p2156
(lp2157
F0.31999999999999995
aF0.43999999999999995
aF0.31999999999999995
aF0.6
asa(dp2158
S'person-26'
p2159
(lp2160
F0.2592592592592593
aF0.3580246913580247
aF0.2592592592592593
aF0.11111111111111116
asa(dp2161
S'person-25'
p2162
(lp2163
F0.36
aF0.4
aF0.36
aF0.4
asa(dp2164
S'person-24'
p2165
(lp2166
F0.19999999999999996
aF0.31999999999999995
aF0.19999999999999996
aF0.52
asa(dp2167
S'person-23'
p2168
(lp2169
F0.24
aF0.4
aF0.24
aF0.48
asa(dp2170
S'person-22'
p2171
(lp2172
F0.625
aF0.375
aF0.625
aF0.625
asa(dp2173
S'person-21'
p2174
(lp2175
F0.308641975308642
aF0.3580246913580247
aF0.308641975308642
aF0.5555555555555556
asa(dp2176
S'person-20'
p2177
(lp2178
F0.28
aF0.64
aF0.28
aF0.36
asa(dp2179
S'dog snow-44'
p2180
(lp2181
F0.52
aF0.36
aF0.52
aF0.52
asa(dp2182
S'person-29'
p2183
(lp2184
F0.4
aF0.6
aF0.4
aF0.6
asa(dp2185
S'person-28'
p2186
(lp2187
F0.45679012345679015
aF0.45679012345679015
aF0.45679012345679015
aF0.5061728395061729
asa(dp2188
S'cat-31'
p2189
(lp2190
F0.5102040816326531
aF0.7551020408163265
aF0.5102040816326531
aF0.18367346938775508
asa(dp2191
S'person guitar-7'
p2192
(lp2193
F0.28
aF0.43999999999999995
aF0.28
aF0.43999999999999995
asa(dp2194
S'person guitar-6'
p2195
(lp2196
F0.36
aF0.4
aF0.36
aF0.48
asa(dp2197
S'person guitar-5'
p2198
(lp2199
F0.2098765432098766
aF0.5061728395061729
aF0.2098765432098766
aF0.5061728395061729
asa(dp2200
S'person guitar-9'
p2201
(lp2202
F0.52
aF0.12
aF0.52
aF0.64
asa(dp2203
S'person guitar-8'
p2204
(lp2205
F0.45679012345679015
aF0.45679012345679015
aF0.45679012345679015
aF0.5061728395061729
asa(dp2206
S'car-29'
p2207
(lp2208
F0.5061728395061729
aF0.6049382716049383
aF0.5061728395061729
aF0.5555555555555556
asa(dp2209
S'car street-27'
p2210
(lp2211
F0.5918367346938775
aF0.4285714285714286
aF0.5918367346938775
aF0.26530612244897955
asa(dp2212
S'bird-26'
p2213
(lp2214
F0.6799999999999999
aF0.52
aF0.6799999999999999
aF0.6799999999999999
asa(dp2215
S'car street-25'
p2216
(lp2217
F0.5555555555555556
aF0.45679012345679015
aF0.5555555555555556
aF0.5555555555555556
asa(dp2218
S'dog-18'
p2219
(lp2220
F0.4375
aF0.625
aF0.4375
aF0.4375
asa(dp2221
S'car street-24'
p2222
(lp2223
F0.26530612244897955
aF0.7551020408163265
aF0.26530612244897955
aF0.34693877551020413
asa(dp2224
S'dog-12'
p2225
(lp2226
F0.6734693877551021
aF0.4285714285714286
aF0.6734693877551021
aF0.26530612244897955
asa(dp2227
S'dog-13'
p2228
(lp2229
F0.26530612244897955
aF0.5102040816326531
aF0.26530612244897955
aF0.4285714285714286
asa(dp2230
S'dog-36'
p2231
(lp2232
F0.5555555555555556
aF0.2222222222222222
aF0.5555555555555556
aF0.4444444444444444
asa(dp2233
S'dog-11'
p2234
(lp2235
F0.36
aF0.6799999999999999
aF0.36
aF0.6799999999999999
asa(dp2236
S'dog-16'
p2237
(lp2238
F0.11111111111111116
aF0.5555555555555556
aF0.11111111111111116
aF0.2222222222222222
asa(dp2239
S'dog-17'
p2240
(lp2241
F0.4285714285714286
aF0.26530612244897955
aF0.4285714285714286
aF0.6734693877551021
asa(dp2242
S'dog-14'
p2243
(lp2244
F0.52
aF0.52
aF0.52
aF0.36
asa(dp2245
S'bird-22'
p2246
(lp2247
F0.34693877551020413
aF0.18367346938775508
aF0.34693877551020413
aF0.020408163265306145
asa(dp2248
S'bird grass-18'
p2249
(lp2250
F0.36
aF0.6799999999999999
aF0.36
aF0.52
asa(dp2251
S'bird grass-19'
p2252
(lp2253
F0.75
aF0.75
aF0.75
aF0.5
asa(dp2254
S'person basketball-29'
p2255
(lp2256
F0.75
aF0.5
aF0.75
aF0.5625
asa(dp2257
S'dog grass-29'
p2258
(lp2259
F0.45679012345679015
aF0.654320987654321
aF0.45679012345679015
aF0.40740740740740744
asa(dp2260
S'bird grass-12'
p2261
(lp2262
F0.25
aF0.5
aF0.25
aF0.5
asa(dp2263
S'bird grass-13'
p2264
(lp2265
F0.11111111111111116
aF0.11111111111111116
aF0.11111111111111116
aF0.5555555555555556
asa(dp2266
S'bird grass-10'
p2267
(lp2268
F0.0
aF1.0
aF0.0
aF0.75
asa(dp2269
S'bird grass-11'
p2270
(lp2271
F0.36
aF0.36
aF0.36
aF0.36
asa(dp2272
S'bird grass-16'
p2273
(lp2274
F0.5555555555555556
aF1.0
aF0.5555555555555556
aF0.5555555555555556
asa(dp2275
S'bird grass-17'
p2276
(lp2277
F0.36
aF0.19999999999999996
aF0.36
aF0.040000000000000036
asa(dp2278
S'bird grass-14'
p2279
(lp2280
F0.19999999999999996
aF0.52
aF0.19999999999999996
aF1.0
asa(dp2281
S'bird grass-15'
p2282
(lp2283
F0.5918367346938775
aF0.34693877551020413
aF0.5918367346938775
aF0.5918367346938775
asa(dp2284
S'person room-6'
p2285
(lp2286
F0.308641975308642
aF0.3580246913580247
aF0.308641975308642
aF0.2098765432098766
asa(dp2287
S'person room-7'
p2288
(lp2289
F0.0
aF0.375
aF0.0
aF0.4375
asa(dp2290
S'person room-5'
p2291
(lp2292
F0.5625
aF0.4375
aF0.5625
aF0.4375
asa(dp2293
S'person room-8'
p2294
(lp2295
F0.11111111111111116
aF0.16049382716049387
aF0.11111111111111116
aF0.2592592592592593
asa(dp2296
S'person room-9'
p2297
(lp2298
F0.16000000000000003
aF0.48
aF0.16000000000000003
aF0.31999999999999995
asa(dp2299
S'person basketball-28'
p2300
(lp2301
F0.6666666666666667
aF0.5555555555555556
aF0.6666666666666667
aF0.6666666666666667
asa(dp2302
S'dog grass-24'
p2303
(lp2304
F0.33333333333333337
aF0.5555555555555556
aF0.33333333333333337
aF0.4444444444444444
asa(dp2305
S'car grass-49'
p2306
(lp2307
F0.0
aF0.0
aF0.0
aF0.0
asa(dp2308
S'car grass-48'
p2309
(lp2310
F0.5555555555555556
aF0.5555555555555556
aF0.5555555555555556
aF0.5555555555555556
asa(dp2311
S'car grass-45'
p2312
(lp2313
F0.75
aF0.5
aF0.75
aF0.5
asa(dp2314
S'car grass-44'
p2315
(lp2316
F0.11111111111111116
aF0.11111111111111116
aF0.11111111111111116
aF0.11111111111111116
asa(dp2317
S'car grass-47'
p2318
(lp2319
F1.0
aF0.0
aF1.0
aF0.0
asa(dp2320
S'car grass-46'
p2321
(lp2322
F0.25
aF0.25
aF0.25
aF0.5
asa(dp2323
S'car grass-41'
p2324
(lp2325
F0.5555555555555556
aF1.0
aF0.5555555555555556
aF0.5555555555555556
asa(dp2326
S'car grass-40'
p2327
(lp2328
F0.0
aF0.0
aF0.0
aF0.0
asa(dp2329
S'car grass-42'
p2330
(lp2331
F0.5555555555555556
aF0.5555555555555556
aF0.5555555555555556
aF1.0
asa(dp2332
S'dog snow-5'
p2333
(lp2334
F0.19999999999999996
aF0.6799999999999999
aF0.19999999999999996
aF0.040000000000000036
asa(dp2335
S'person guitar-28'
p2336
(lp2337
F0.3580246913580247
aF0.11111111111111116
aF0.3580246913580247
aF0.5061728395061729
asa(dp2338
S'person guitar-29'
p2339
(lp2340
F0.375
aF0.375
aF0.375
aF0.6875
asa(dp2341
S'car street-29'
p2342
(lp2343
F0.4375
aF0.3125
aF0.4375
aF0.3125
asa(dp2344
S'person guitar-22'
p2345
(lp2346
F0.36
aF0.24
aF0.36
aF0.56
asa(dp2347
S'person guitar-23'
p2348
(lp2349
F0.56
aF0.43999999999999995
aF0.56
aF0.48
asa(dp2350
S'person guitar-20'
p2351
(lp2352
F0.2592592592592593
aF0.5555555555555556
aF0.2592592592592593
aF0.5061728395061729
asa(dp2353
S'person guitar-21'
p2354
(lp2355
F0.52
aF0.43999999999999995
aF0.52
aF0.52
asa(dp2356
S'person guitar-26'
p2357
(lp2358
F0.40740740740740744
aF0.16049382716049387
aF0.40740740740740744
aF0.2098765432098766
asa(dp2359
S'person guitar-27'
p2360
(lp2361
F0.31999999999999995
aF0.28
aF0.31999999999999995
aF0.56
asa(dp2362
S'person guitar-24'
p2363
(lp2364
F0.308641975308642
aF0.2592592592592593
aF0.308641975308642
aF0.308641975308642
asa(dp2365
S'person guitar-25'
p2366
(lp2367
F0.3580246913580247
aF0.2592592592592593
aF0.3580246913580247
aF0.40740740740740744
asa(dp2368
S'dog-23'
p2369
(lp2370
F0.34693877551020413
aF0.4285714285714286
aF0.34693877551020413
aF0.18367346938775508
asa(dp2371
S'person room-28'
p2372
(lp2373
F0.16049382716049387
aF0.5555555555555556
aF0.16049382716049387
aF0.308641975308642
asa(dp2374
S'dog grass-13'
p2375
(lp2376
F0.34693877551020413
aF0.6734693877551021
aF0.34693877551020413
aF0.26530612244897955
asa(dp2377
S'horse-26'
p2378
(lp2379
F0.34693877551020413
aF0.7551020408163265
aF0.34693877551020413
aF0.26530612244897955
asa(dp2380
S'horse-27'
p2381
(lp2382
F0.33333333333333337
aF0.33333333333333337
aF0.33333333333333337
aF0.0
asa(dp2383
S'horse-24'
p2384
(lp2385
F0.0
aF0.2222222222222222
aF0.0
aF0.11111111111111116
asa(dp2386
S'horse-25'
p2387
(lp2388
F0.375
aF0.5625
aF0.375
aF0.3125
asa(dp2389
S'horse-22'
p2390
(lp2391
F0.18367346938775508
aF0.26530612244897955
aF0.18367346938775508
aF0.5918367346938775
asa(dp2392
S'horse-23'
p2393
(lp2394
F0.36
aF0.52
aF0.36
aF0.040000000000000036
asa(dp2395
S'horse-20'
p2396
(lp2397
F0.6734693877551021
aF0.5102040816326531
aF0.6734693877551021
aF0.5918367346938775
asa(dp2398
S'horse-21'
p2399
(lp2400
F0.6666666666666667
aF0.6666666666666667
aF0.6666666666666667
aF0.5555555555555556
asa(dp2401
S'dog-10'
p2402
(lp2403
F0.43999999999999995
aF0.48
aF0.43999999999999995
aF0.56
asa(dp2404
S'horse-28'
p2405
(lp2406
F0.375
aF0.1875
aF0.375
aF0.125
asa(dp2407
S'horse-29'
p2408
(lp2409
F0.6734693877551021
aF0.4285714285714286
aF0.6734693877551021
aF0.10204081632653061
asa(dp2410
S'dog water-43'
p2411
(lp2412
F0.11111111111111116
aF1.0
aF0.11111111111111116
aF1.0
asa(dp2413
S'bird-29'
p2414
(lp2415
F0.5
aF0.375
aF0.5
aF0.4375
asa(dp2416
S'dog-15'
p2417
(lp2418
F0.4375
aF0.5
aF0.4375
aF0.4375
asa(dp2419
S'person room-23'
p2420
(lp2421
F0.34693877551020413
aF0.18367346938775508
aF0.34693877551020413
aF0.10204081632653061
asa(dp2422
S'bird-45'
p2423
(lp2424
F0.56
aF0.76
aF0.56
aF0.64
asa(dp2425
S'dog-28'
p2426
(lp2427
F0.5918367346938775
aF0.4285714285714286
aF0.5918367346938775
aF0.5102040816326531
asa(dp2428
S'sofa-25'
p2429
(lp2430
F0.64
aF0.31999999999999995
aF0.64
aF0.4
asa(dp2431
S'dog water-45'
p2432
(lp2433
F0.25
aF0.75
aF0.25
aF1.0
asa(dp2434
S'bird-19'
p2435
(lp2436
F0.16049382716049387
aF0.2592592592592593
aF0.16049382716049387
aF0.16049382716049387
asa(dp2437
S'person kitchen-29'
p2438
(lp2439
F1.0
aF0.11111111111111116
aF1.0
aF0.5555555555555556
asa(dp2440
S'bird-28'
p2441
(lp2442
F0.0625
aF0.25
aF0.0625
aF0.25
asa(dp2443
S'person kitchen-28'
p2444
(lp2445
F0.36
aF0.84
aF0.36
aF0.36
asa(dp2446
S'person basketball-8'
p2447
(lp2448
F0.33333333333333337
aF1.0
aF0.33333333333333337
aF0.5555555555555556
asa(dp2449
S'person basketball-9'
p2450
(lp2451
F1.0
aF0.5555555555555556
aF1.0
aF0.5555555555555556
asa(dp2452
S'bird-41'
p2453
(lp2454
F0.4375
aF0.375
aF0.4375
aF0.1875
asa(dp2455
S'person basketball-6'
p2456
(lp2457
F0.5555555555555556
aF0.33333333333333337
aF0.5555555555555556
aF0.2222222222222222
asa(dp2458
S'person basketball-7'
p2459
(lp2460
F1.0
aF1.0
aF1.0
aF0.5555555555555556
asa(dp2461
S'sofa-28'
p2462
(lp2463
F0.25
aF0.25
aF0.25
aF0.0
asa(dp2464
S'dog water-42'
p2465
(lp2466
F0.0
aF0.5
aF0.0
aF0.5
asa(dp2467
S'sheep-48'
p2468
(lp2469
F1.0
aF0.52
aF1.0
aF0.52
asa(dp2470
S'sheep-49'
p2471
(lp2472
F1.0
aF1.0
aF1.0
aF1.0
asa(dp2473
S'sheep-46'
p2474
(lp2475
F0.5555555555555556
aF0.11111111111111116
aF0.5555555555555556
aF0.11111111111111116
asa(dp2476
S'sheep-47'
p2477
(lp2478
F0.6799999999999999
aF0.52
aF0.6799999999999999
aF0.84
asa(dp2479
S'sheep-44'
p2480
(lp2481
F0.11111111111111116
aF0.11111111111111116
aF0.11111111111111116
aF0.11111111111111116
asa(dp2482
S'sheep-45'
p2483
(lp2484
F0.6666666666666667
aF0.4444444444444444
aF0.6666666666666667
aF0.0
asa(dp2485
S'sheep-42'
p2486
(lp2487
F0.5918367346938775
aF0.34693877551020413
aF0.5918367346938775
aF0.34693877551020413
asa(dp2488
S'sheep-43'
p2489
(lp2490
F0.33333333333333337
aF0.2222222222222222
aF0.33333333333333337
aF0.33333333333333337
asa(dp2491
S'sheep-40'
p2492
(lp2493
F0.75
aF0.25
aF0.75
aF0.25
asa(dp2494
S'bird-14'
p2495
(lp2496
F0.308641975308642
aF0.45679012345679015
aF0.308641975308642
aF0.45679012345679015
asa(dp2497
S'dog grass-41'
p2498
(lp2499
F0.375
aF0.4375
aF0.375
aF0.4375
asa(dp2500
S'dog grass-44'
p2501
(lp2502
F0.5625
aF0.25
aF0.5625
aF0.6875
asa(dp2503
S'dog grass-40'
p2504
(lp2505
F0.020408163265306145
aF0.7551020408163265
aF0.020408163265306145
aF0.18367346938775508
asa(dp2506
S'dog grass-43'
p2507
(lp2508
F0.10204081632653061
aF0.34693877551020413
aF0.10204081632653061
aF0.34693877551020413
asa(dp2509
S'person kitchen-20'
p2510
(lp2511
F1.0
aF1.0
aF1.0
aF1.0
asa(dp2512
S'dog grass-45'
p2513
(lp2514
F0.18367346938775508
aF0.6734693877551021
aF0.18367346938775508
aF0.26530612244897955
asa(dp2515
S'sofa-38'
p2516
(lp2517
F0.6799999999999999
aF0.19999999999999996
aF0.6799999999999999
aF0.040000000000000036
asa(dp2518
S'person kitchen-26'
p2519
(lp2520
F1.0
aF1.0
aF1.0
aF0.5555555555555556
asa(dp2521
S'car street-30'
p2522
(lp2523
F0.25
aF0.3125
aF0.25
aF0.75
asa(dp2524
S'car street-31'
p2525
(lp2526
F0.45679012345679015
aF0.2098765432098766
aF0.45679012345679015
aF0.3580246913580247
asa(dp2527
S'car street-32'
p2528
(lp2529
F0.43999999999999995
aF0.24
aF0.43999999999999995
aF0.6
asa(dp2530
S'car street-33'
p2531
(lp2532
F0.375
aF0.4375
aF0.375
aF0.3125
asa(dp2533
S'bird-30'
p2534
(lp2535
F0.5
aF0.25
aF0.5
aF0.25
asa(dp2536
S'dog grass-47'
p2537
(lp2538
F0.5555555555555556
aF0.6666666666666667
aF0.5555555555555556
aF0.8888888888888888
asa(dp2539
S'bird-32'
p2540
(lp2541
F0.3580246913580247
aF0.45679012345679015
aF0.3580246913580247
aF0.2098765432098766
asa(dp2542
S'car street-37'
p2543
(lp2544
F0.5061728395061729
aF0.654320987654321
aF0.5061728395061729
aF0.3580246913580247
asa(dp2545
S'car street-38'
p2546
(lp2547
F0.654320987654321
aF0.11111111111111116
aF0.654320987654321
aF0.3580246913580247
asa(dp2548
S'car street-39'
p2549
(lp2550
F0.48
aF0.36
aF0.48
aF0.52
asa(dp2551
S'dog grass-10'
p2552
(lp2553
F0.3125
aF0.1875
aF0.3125
aF0.4375
asa(dp2554
S'dog grass-11'
p2555
(lp2556
F0.0
aF0.2222222222222222
aF0.0
aF0.33333333333333337
asa(dp2557
S'bird-38'
p2558
(lp2559
F0.18367346938775508
aF0.10204081632653061
aF0.18367346938775508
aF0.10204081632653061
asa(dp2560
S'dog grass-17'
p2561
(lp2562
F0.4285714285714286
aF0.5102040816326531
aF0.4285714285714286
aF0.26530612244897955
asa(dp2563
S'dog grass-14'
p2564
(lp2565
F0.2098765432098766
aF0.3580246913580247
aF0.2098765432098766
aF0.45679012345679015
asa(dp2566
S'dog grass-15'
p2567
(lp2568
F0.2222222222222222
aF0.6666666666666667
aF0.2222222222222222
aF0.5555555555555556
asa(dp2569
S'sofa-49'
p2570
(lp2571
F0.52
aF0.36
aF0.52
aF0.19999999999999996
asa(dp2572
S'sofa-48'
p2573
(lp2574
F0.19999999999999996
aF0.19999999999999996
aF0.19999999999999996
aF0.19999999999999996
asa(dp2575
S'person room-16'
p2576
(lp2577
F0.040000000000000036
aF0.19999999999999996
aF0.040000000000000036
aF0.16000000000000003
asa(dp2578
S'person room-17'
p2579
(lp2580
F0.25
aF0.0625
aF0.25
aF0.5
asa(dp2581
S'person room-10'
p2582
(lp2583
F0.3580246913580247
aF0.2098765432098766
aF0.3580246913580247
aF0.40740740740740744
asa(dp2584
S'person room-11'
p2585
(lp2586
F0.5
aF0.25
aF0.5
aF0.25
asa(dp2587
S'person room-12'
p2588
(lp2589
F0.31999999999999995
aF0.4
aF0.31999999999999995
aF0.31999999999999995
asa(dp2590
S'person room-13'
p2591
(lp2592
F0.11111111111111116
aF0.5061728395061729
aF0.11111111111111116
aF0.45679012345679015
asa(dp2593
S'sofa-41'
p2594
(lp2595
F0.5918367346938775
aF0.020408163265306145
aF0.5918367346938775
aF0.5102040816326531
asa(dp2596
S'sofa-40'
p2597
(lp2598
F0.654320987654321
aF0.2098765432098766
aF0.654320987654321
aF0.3580246913580247
asa(dp2599
S'sofa-43'
p2600
(lp2601
F0.5
aF0.125
aF0.5
aF0.125
asa(dp2602
S'sofa-42'
p2603
(lp2604
F0.4285714285714286
aF0.020408163265306145
aF0.4285714285714286
aF0.5918367346938775
asa(dp2605
S'sofa-45'
p2606
(lp2607
F0.36
aF0.52
aF0.36
aF0.19999999999999996
asa(dp2608
S'person room-19'
p2609
(lp2610
F0.43999999999999995
aF0.16000000000000003
aF0.43999999999999995
aF0.12
asa(dp2611
S'sofa-47'
p2612
(lp2613
F0.6666666666666667
aF0.2222222222222222
aF0.6666666666666667
aF0.6666666666666667
asa(dp2614
S'sofa-46'
p2615
(lp2616
F0.5
aF0.25
aF0.5
aF0.25
asa(dp2617
S'car-38'
p2618
(lp2619
F0.6734693877551021
aF0.5918367346938775
aF0.6734693877551021
aF0.4285714285714286
asa(dp2620
S'sofa-19'
p2621
(lp2622
F0.3125
aF0.8125
aF0.3125
aF0.1875
asa(dp2623
S'car grass-34'
p2624
(lp2625
F0.4285714285714286
aF0.8367346938775511
aF0.4285714285714286
aF0.5918367346938775
asa(dp2626
S'person beach-28'
p2627
(lp2628
F0.19999999999999996
aF0.19999999999999996
aF0.19999999999999996
aF0.6799999999999999
asa(dp2629
S'person beach-29'
p2630
(lp2631
F0.5918367346938775
aF0.18367346938775508
aF0.5918367346938775
aF0.18367346938775508
asa(dp2632
S'person beach-26'
p2633
(lp2634
F0.7551020408163265
aF0.26530612244897955
aF0.7551020408163265
aF0.4285714285714286
asa(dp2635
S'person beach-27'
p2636
(lp2637
F0.6734693877551021
aF0.020408163265306145
aF0.6734693877551021
aF0.5102040816326531
asa(dp2638
S'person beach-24'
p2639
(lp2640
F0.7777777777777778
aF0.33333333333333337
aF0.7777777777777778
aF0.2222222222222222
asa(dp2641
S'person beach-25'
p2642
(lp2643
F0.4444444444444444
aF0.4444444444444444
aF0.4444444444444444
aF0.33333333333333337
asa(dp2644
S'person beach-22'
p2645
(lp2646
F0.11111111111111116
aF0.4444444444444444
aF0.11111111111111116
aF0.4444444444444444
asa(dp2647
S'person beach-23'
p2648
(lp2649
F0.625
aF0.25
aF0.625
aF0.75
asa(dp2650
S'person beach-20'
p2651
(lp2652
F0.6666666666666667
aF0.33333333333333337
aF0.6666666666666667
aF0.5555555555555556
asa(dp2653
S'person beach-21'
p2654
(lp2655
F0.33333333333333337
aF0.7777777777777778
aF0.33333333333333337
aF0.4444444444444444
asa(dp2656
S'person kitchen-18'
p2657
(lp2658
F0.11111111111111116
aF0.11111111111111116
aF0.11111111111111116
aF0.5555555555555556
asa(dp2659
S'car-39'
p2660
(lp2661
F0.5555555555555556
aF0.5555555555555556
aF0.5555555555555556
aF0.5555555555555556
asa(dp2662
S'car-27'
p2663
(lp2664
F0.3125
aF0.375
aF0.3125
aF0.4375
asa(dp2665
S'car-26'
p2666
(lp2667
F0.84
aF0.6799999999999999
aF0.84
aF0.6799999999999999
asa(dp2668
S'car-25'
p2669
(lp2670
F0.4444444444444444
aF0.33333333333333337
aF0.4444444444444444
aF0.33333333333333337
asa(dp2671
S'car-24'
p2672
(lp2673
F0.75
aF0.0
aF0.75
aF0.5
asa(dp2674
S'car-23'
p2675
(lp2676
F0.3125
aF0.1875
aF0.3125
aF0.375
asa(dp2677
S'horse grass-49'
p2678
(lp2679
F0.4444444444444444
aF0.0
aF0.4444444444444444
aF0.0
asa(dp2680
S'car-21'
p2681
(lp2682
F0.34693877551020413
aF0.18367346938775508
aF0.34693877551020413
aF0.34693877551020413
asa(dp2683
S'dog snow-39'
p2684
(lp2685
F0.25
aF0.25
aF0.25
aF0.25
asa(dp2686
S'dog snow-36'
p2687
(lp2688
F0.6799999999999999
aF0.36
aF0.6799999999999999
aF0.19999999999999996
asa(dp2689
S'dog snow-37'
p2690
(lp2691
F0.0
aF0.0
aF0.0
aF0.0
asa(dp2692
S'horse grass-46'
p2693
(lp2694
F0.25
aF0.0
aF0.25
aF0.0
asa(dp2695
S'horse grass-47'
p2696
(lp2697
F0.36
aF0.19999999999999996
aF0.36
aF0.52
asa(dp2698
S'dog snow-32'
p2699
(lp2700
F0.0
aF0.0
aF0.0
aF0.0
asa(dp2701
S'horse grass-41'
p2702
(lp2703
F0.0
aF0.0
aF0.0
aF1.0
asa(dp2704
S'horse grass-42'
p2705
(lp2706
F0.4444444444444444
aF0.11111111111111116
aF0.4444444444444444
aF0.2222222222222222
asa(dp2707
S'car-28'
p2708
(lp2709
F0.4444444444444444
aF0.4444444444444444
aF0.4444444444444444
aF0.5555555555555556
asa(dp2710
S'car street-45'
p2711
(lp2712
F0.5061728395061729
aF0.2098765432098766
aF0.5061728395061729
aF0.3580246913580247
asa(dp2713
S'car street-44'
p2714
(lp2715
F0.5102040816326531
aF0.4285714285714286
aF0.5102040816326531
aF0.34693877551020413
asa(dp2716
S'car street-47'
p2717
(lp2718
F0.31999999999999995
aF0.6
aF0.31999999999999995
aF0.6
asa(dp2719
S'car street-46'
p2720
(lp2721
F0.18367346938775508
aF0.5918367346938775
aF0.18367346938775508
aF0.26530612244897955
asa(dp2722
S'car street-41'
p2723
(lp2724
F0.11111111111111116
aF0.8888888888888888
aF0.11111111111111116
aF0.5555555555555556
asa(dp2725
S'car street-40'
p2726
(lp2727
F0.11111111111111116
aF0.4444444444444444
aF0.11111111111111116
aF0.5555555555555556
asa(dp2728
S'car street-43'
p2729
(lp2730
F0.308641975308642
aF0.06172839506172845
aF0.308641975308642
aF0.11111111111111116
asa(dp2731
S'car street-42'
p2732
(lp2733
F0.4375
aF0.6875
aF0.4375
aF0.4375
asa(dp2734
S'horse grass-29'
p2735
(lp2736
F1.0
aF0.0
aF1.0
aF1.0
asa(dp2737
S'car street-49'
p2738
(lp2739
F0.5061728395061729
aF0.2592592592592593
aF0.5061728395061729
aF0.5061728395061729
asa(dp2740
S'car street-48'
p2741
(lp2742
F0.40740740740740744
aF0.16049382716049387
aF0.40740740740740744
aF0.45679012345679015
asa(dp2743
S'person beach-38'
p2744
(lp2745
F0.36
aF0.36
aF0.36
aF0.040000000000000036
asa(dp2746
S'dog-45'
p2747
(lp2748
F0.5102040816326531
aF0.4285714285714286
aF0.5102040816326531
aF0.26530612244897955
asa(dp2749
S'dog-44'
p2750
(lp2751
F0.8367346938775511
aF0.5102040816326531
aF0.8367346938775511
aF0.5102040816326531
asa(dp2752
S'dog-47'
p2753
(lp2754
F0.4285714285714286
aF0.5102040816326531
aF0.4285714285714286
aF0.6734693877551021
asa(dp2755
S'dog-46'
p2756
(lp2757
F0.5555555555555556
aF0.4444444444444444
aF0.5555555555555556
aF0.5555555555555556
asa(dp2758
S'dog-41'
p2759
(lp2760
F0.5
aF0.375
aF0.5
aF0.375
asa(dp2761
S'dog-40'
p2762
(lp2763
F0.5
aF0.5
aF0.5
aF0.5
asa(dp2764
S'dog-43'
p2765
(lp2766
F0.18367346938775508
aF0.18367346938775508
aF0.18367346938775508
aF0.020408163265306145
asa(dp2767
S'dog-42'
p2768
(lp2769
F0.375
aF0.375
aF0.375
aF0.25
asa(dp2770
S'dog-49'
p2771
(lp2772
F0.34693877551020413
aF0.5918367346938775
aF0.34693877551020413
aF0.4285714285714286
asa(dp2773
S'dog-48'
p2774
(lp2775
F0.84
aF0.52
aF0.84
aF0.6799999999999999
asa(dp2776
S'car grass-37'
p2777
(lp2778
F1.0
aF0.0
aF1.0
aF1.0
asa(dp2779
S'dog snow-6'
p2780
(lp2781
F0.25
aF0.75
aF0.25
aF0.25
asa(dp2782
S'sheep-34'
p2783
(lp2784
F0.5918367346938775
aF0.4285714285714286
aF0.5918367346938775
aF0.4285714285714286
asa(dp2785
S'dog snow-7'
p2786
(lp2787
F0.5555555555555556
aF0.5555555555555556
aF0.5555555555555556
aF1.0
asa(dp2788
S'person beach-42'
p2789
(lp2790
F0.4375
aF0.1875
aF0.4375
aF0.25
asa(dp2791
S'sheep grass-30'
p2792
(lp2793
F0.0
aF0.0
aF0.0
aF0.0
asa(dp2794
S'dog snow-49'
p2795
(lp2796
F0.25
aF0.5
aF0.25
aF0.25
asa(dp2797
S'dog snow-48'
p2798
(lp2799
F0.5
aF0.25
aF0.5
aF0.25
asa(dp2800
S'dog snow-43'
p2801
(lp2802
F0.11111111111111116
aF0.11111111111111116
aF0.11111111111111116
aF0.5555555555555556
asa(dp2803
S'dog snow-42'
p2804
(lp2805
F0.2222222222222222
aF0.2222222222222222
aF0.2222222222222222
aF0.33333333333333337
asa(dp2806
S'dog snow-41'
p2807
(lp2808
F0.19999999999999996
aF0.36
aF0.19999999999999996
aF0.19999999999999996
asa(dp2809
S'dog snow-40'
p2810
(lp2811
F0.52
aF0.36
aF0.52
aF0.040000000000000036
asa(dp2812
S'dog snow-46'
p2813
(lp2814
F0.040000000000000036
aF0.19999999999999996
aF0.040000000000000036
aF0.040000000000000036
asa(dp2815
S'dog snow-45'
p2816
(lp2817
F0.5555555555555556
aF0.5555555555555556
aF0.5555555555555556
aF0.11111111111111116
asa(dp2818
S'sheep grass-16'
p2819
(lp2820
F0.6799999999999999
aF0.52
aF0.6799999999999999
aF0.36
asa(dp2821
S'car street-10'
p2822
(lp2823
F0.5
aF0.625
aF0.5
aF0.5625
asa(dp2824
S'person beach-47'
p2825
(lp2826
F0.2222222222222222
aF0.2222222222222222
aF0.2222222222222222
aF0.33333333333333337
asa.