(dp0
S'ice_energy_ice_bear_new_technology_F4arHI6Ul90'
p1
(F29.97002997002997
I1280
I720
tp2
sS'dog_sledding_3_dog_team_memphis_pulls_a_sled_r-7O5cKwDQo'
p3
(F30.0
I1280
I720
tp4
sS'goats_vs_dogs_compilation_60DxgZ8_NyA'
p5
(F23.976023976023978
I1280
I720
tp6
sS'beach_ball_cookies_for_pool_party_hanielas_pS2TpEWRGm0'
p7
(F30.0
I480
I360
tp8
sS'funny_minions_play_soccer__football__minions_mini_movie_2015_ovch0Hk-ehc'
p9
(F25.0
I1280
I720
tp10
sS'me_and_my_horse_jumping__36_7TrxVA8vR-w'
p11
(F29.97002997002997
I640
I360
tp12
sS'the_next_messi_5_year_old_soccer_player_young_messi_aeuedy8udSA'
p13
(F29.97002997002997
I1280
I720
tp14
sS'bunnies_play_tag_JpLoyjBIhqs'
p15
(F29.97002997002997
I640
I352
tp16
sS'2013_nyc_central_park_zoo_using_gopro_on_a_steadicam_curve_gimbal_emOkrq1xKk8'
p17
(F29.97002997002997
I1280
I720
tp18
sS'longbilled_dowitcher_adult_summ_plum_lille_vildmose_aalborg_denmark_452010_KN1CfH-akjA'
p19
(F29.97002997002997
I320
I240
tp20
sS'_unbroken___bad_horse_riding_falls_xzMu9nadnKQ'
p21
(F25.0
I1280
I720
tp22
sS'kangaroo_vs_emu_fight_d9OBqYbZ99c'
p23
(F30.0
I480
I360
tp24
sS'me_singing_love_sosa_by_chief_keef_with_guitar_cTRhpy98-NU'
p25
(F29.97002997002997
I1280
I720
tp26
sS'little_tikes_ultimate_beach_ball_sprinkler_JErXCVs1jnU'
p27
(F29.97002997002997
I960
I720
tp28
sS'carlos_the_cat_new_pet__vlog_93_cWHpky34Hwk'
p29
(F24.0
I1280
I720
tp30
sS'cats_and_dogs_vs_balloons__funny_animal_compilation_b0KSxH37gVE'
p31
(F29.97002997002997
I1280
I720
tp32
sS'bondi_beach_through_google_glass_M5F1F8vZnVA'
p33
(F23.976023976023978
I1280
I720
tp34
sS'play_doh_cars_angry_birds_space_mater__lightning_mcqueen_as_red_bird_and_bad_piggies_disney_pixar_YhtFax1GZOc'
p35
(F29.97002997002997
I1280
I720
tp36
sS'giraffe_and_zebra_playing_at_the_toledo_zoo_R3EmO1qsTm0'
p37
(F29.666666666666668
I1280
I720
tp38
sS'sea_turtle_migration_video_ZS0kXtmXuj8'
p39
(F23.976023976023978
I1280
I720
tp40
sS'sea_lion_roby_does_the_high_dive_at_saint_louis_zoo_gopro_Li8CBOYxaSY'
p41
(F29.97002997002997
I1280
I720
tp42
sS'zebra_finches_playing_UuWFpxqGCEM'
p43
(F30.0
I568
I320
tp44
sS'learn_how_to_ski_in_the_park__trailer_for_the_ski_addiciton_full_freeski_program_MJVQZoX8Y0w'
p45
(F29.97002997002997
I1280
I720
tp46
sS'gopro_hero3_jogging_with_my_boys_in_the_pram___8x_speed_K_xIPN9zqRI'
p47
(F30.0
I1280
I720
tp48
sS'rip_coopydog_howls_at_fire_truck_siren__hillarious_pn5MVDzjzh4'
p49
(F30.0
I480
I360
tp50
sS'dog_sled_saga__dog_traits_trailer_sgBU1QKlsoE'
p51
(F29.97002997002997
I1280
I720
tp52
sS'peppa_pig_and_sofia_the_first_sleepover_slumber_party_zoe_zebra_royal_bed_disneycartoys_JXuQLCNIzOI'
p53
(F29.97002997002997
I1280
I720
tp54
sS'longbilled_dowitcher_call_askviken_vstmanland_sweden_nPSYDhuVWoE'
p55
(F25.0
I1280
I720
tp56
sS'jack_the_sheep_who_thinks_hes_a_dog_c3VQSDJzBT8'
p57
(F25.0
I1280
I720
tp58
sS'ninja_polar_bear__narrated_by_david_tennant_MC26JK9nk-8'
p59
(F25.0
I1280
I720
tp60
sS'shortbilled_dowitcher_AIAv5ApJBl8'
p61
(F29.97002997002997
I490
I360
tp62
sS'amazing_9_year_old_soccer_player_stefan_mitrovic_9_mini_world_cup_2012_mvp_56Hb1AdSV1U'
p63
(F29.97002997002997
I480
I360
tp64
sS'remove_cat_before_flight_J_8mdH20qTQ'
p65
(F29.97002997002997
I960
I720
tp66
sS'polar_bear_spy_on_the_ice_polar_bear_hunts_a_seal_Qw_j2H_aqOU'
p67
(F29.97002997002997
I640
I360
tp68
sS'playing_hockey_with_cute_dachshund_dogs_mhTJtNVMvS8'
p69
(F29.97002997002997
I1280
I720
tp70
sS'google_glass_dog_cam_HdBupDwkFiU'
p71
(F25.0
I1280
I720
tp72
sS'jogging_with_hendrik_and_gopro_hero_4_silver_Y7avJ7yHH-Y'
p73
(F29.97002997002997
I1280
I720
tp74
sS'playing_and_dream_of_sheep_kate_bush_EvGTfnuSHNw'
p75
(F25.0
I1280
I720
tp76
sS'world_championship_dog_sled_races_2013_i5iBGT-JHj4'
p77
(F29.97002997002997
I1280
I720
tp78
sS'dead_knut_icebear_polarbear_o9P_gUtZN-E'
p79
(F29.97002997002997
I640
I360
tp80
sS'crusader_kings_ii__horse_lords_release_trailer_rtVIu4fHOS4'
p81
(F30.0
I1280
I720
tp82
sS'angry_birds_transformers_toys__optimus_prime_bird_raceway_unboxed_pdthCrBIO4I'
p83
(F25.0
I1280
I720
tp84
sS'kid_gets_owned_by_blow_up_beachball_ACqKhh5nfO0'
p85
(F38.583333333333336
I176
I144
tp86
sS'funny_one_piece__luffy_and_usopp_play_in_the_snow_uVJ6h0aH-l4'
p87
(F23.976023976023978
I480
I360
tp88
sS'a_free_lunch_crab_trap_and_gopro_camera_LJN7Y-Q_fRM'
p89
(F29.97002997002997
I540
I360
tp90
sS'making_a_dog_sled_d-S760pOwmA'
p91
(F29.97002997002997
I480
I360
tp92
sS'enterplay_super_mario_nintendo_dog_tags_collectors_tin_unboxing_by_bins_toy_bin_Xkpk2mDNqE8'
p93
(F29.97002997002997
I1280
I720
tp94
sS'coon_dog_rock_and_raccoon_ringo_playing_8qYGa3O_DZ0'
p95
(F30.0
I1280
I720
tp96
sS'dog_in_garbage_truck_WCmhpkqzvKU'
p97
(F29.97002997002997
I540
I360
tp98
sS'funny_cats_playing_in_the_snow_first_time_compilation_2015_ipIVFfMUYFs'
p99
(F29.97002997002997
I1280
I720
tp100
sS'horse_L46iCN6MBFM'
p101
(F25.0
I1280
I720
tp102
sS'kevin_hart__i_dont_like_ostrichs_5XxjEtYiyoE'
p103
(F29.97002997002997
I1280
I720
tp104
sS'hilarious_macaw_talking_kACHmHhQlkM'
p105
(F30.0
I480
I360
tp106
sS'best_basketball_vines_compilation_vol_16_kaSI2UbUeng'
p107
(F29.97002997002997
I1280
I720
tp108
sS'6weekold_baby_zebra_plays_on_safari_SWIMXcWqpvo'
p109
(F29.97002997002997
I1280
I720
tp110
sS'tucker_piano_dec_72010wmv_PiblYasnzWE'
p111
(F29.97002997002997
I960
I720
tp112
sS'blind_kellar_plays_fetch_Ha92yzmVv2s'
p113
(F30.0
I480
I360
tp114
sS'hiking_yosemite__gopro_adventure_mQolhxw4VNc'
p115
(F29.97002997002997
I1280
I720
tp116
sS'rescuing_a_scared_homeless_dog_just_before_a_rain_storm_please_share_OOdZAQ0YD3w'
p117
(F29.97002997002997
I1280
I720
tp118
sS'dutch_rabbit_playing_BYBskNZxbNo'
p119
(F24.0
I1280
I720
tp120
sS'jamies_world__balloons_9wl9yYi2ckg'
p121
(F25.0
I640
I360
tp122
sS'cat__bunny_best_friends_AHKLtpCH2zA'
p123
(F23.976023976023978
I1280
I720
tp124
sS'hold_tight_take_a_wild_sled_dog_ride_with_4time_iditarod_champ_jeff_king_dAHa-6VkUQY'
p125
(F23.976023976023978
I1280
I720
tp126
sS'cool_cute_cubs__amazing_animal_babies_polar_bear_cubs_ep_6__earth_unplugged_spx-0FrsLKQ'
p127
(F25.0
I1280
I720
tp128
sS'kenworth_t904_truck_and_dog_AKQZOWSesKc'
p129
(F29.97002997002997
I640
I360
tp130
sS'my_dog_wearing_the_gopro_walking_on_the_beach_at_oak_island_nc_watch_in_hd_BJJJQAziOhY'
p131
(F30.0
I1280
I720
tp132
sS'sprikler_beach_ball_for_kids__backyard_and_beach_fun_hook_to_water_hose_CbdHRajfYuQ'
p133
(F17.0
I480
I360
tp134
sS'basketball_moves_15_killer_crossover_moves__make_em_fall_N8jW3gGJnRQ'
p135
(F29.97002997002997
I640
I360
tp136
sS'hyacinth_macaw_teasing_the_yorkies_-Mv-7yuvr68'
p137
(F15.0
I320
I240
tp138
sS'top_3_bear_special_newyear_compilation_SXWLPoGx7Tk'
p139
(F29.97002997002997
I1280
I720
tp140
sS'funny_dogs_2015__best_videos_funny_dog_compilation_2015__top_funny_animals_videos_P4dG3Oq5BsM'
p141
(F29.97002997002997
I1280
I720
tp142
sS'agujeta_piquicorta__limnodromus_griseus__shortbilled_dowitcher_05j7UnC4E3M'
p143
(F29.97002997002997
I1280
I720
tp144
sS'gopro_minnesota_zoo_adventure_NJGNJHVBf2E'
p145
(F29.97002997002997
I1280
I720
tp146
sS'biggest_beach_ball_youve_ever_seen_5AbEMraJmyA'
p147
(F30.0
I1280
I720
tp148
sS'wrestling_a_grizzly_bear_in_my_garden_9nSWc43TLaI'
p149
(F23.976023976023978
I1280
I720
tp150
sS'wow_guitar_playing_parrot__funny_pet_bird_cockatoo_video_EK9aYoDkKig'
p151
(F11.988011988011989
I320
I180
tp152
sS'living_with_google_glass_day_four__engadget_MC32fE5gYBI'
p153
(F30.0
I1280
I720
tp154
sS'dogs_welcoming_soldiers_home_compilation_2012_hd_RKBcs9tNWg8'
p155
(F30.0
I1280
I720
tp156
sS'watch_dogs__e3_2013_trailer_L2qK6MXjLmA'
p157
(F29.97002997002997
I1280
I720
tp158
sS'funny_kangaroo_compilation_2014_PDi91saMKn0'
p159
(F30.0
I1280
I720
tp160
sS'walking_on_the_edge__gopro_SHyb65DH7Vc'
p161
(F20.0
I640
I360
tp162
sS'snowmobile_crash_compilation_part_1_ovsZRmOBrl8'
p163
(F29.97002997002997
I1280
I720
tp164
sS'gopro_jogging_1neCgMBvUZk'
p165
(F29.97002997002997
I1280
I720
tp166
sS'all_dogs_go_to_heaven__you_cant_keep_a_good_dog_down_LLbVI44FA6Q'
p167
(F25.0
I450
I360
tp168
sS'amazing_super_dog_vs_mud_truck_UoqU-YGaRlU'
p169
(F29.97002997002997
I640
I360
tp170
sS'snowmobile_lift_system_the_very_simple_homemade_way_DisCYKKwTGA'
p171
(F30.0
I640
I360
tp172
sS'my_life_horse_riding_iHbzju0i12o'
p173
(F25.0
I450
I360
tp174
sS'cute_babies_and_dogs_playing_together__funny_baby__dog_compilation_rvyrGEzE-lI'
p175
(F29.97002997002997
I1280
I720
tp176
sS'why_dogs_are_better_than_cats_MAyciYKv1ms'
p177
(F23.976023976023978
I1280
I720
tp178
sS'meerkat_vs_periscope_livestreaming_apps__tech_bet__cnbc_u6pxz6B7Uos'
p179
(F30.0
I1280
I720
tp180
sS'new_conservation_project_reveals_amazing_turtles_eyeview__of_the_great_barrier_reef_2I6hDqCrI9o'
p181
(F29.97002997002997
I640
I360
tp182
sS'playing_with_angry_birds_JL-0v1KwagY'
p183
(F29.97002997002997
I640
I360
tp184
sS'gopro_lunch_linemov_PnSgTMMLHs8'
p185
(F29.97002997002997
I1280
I720
tp186
sS'best_basketball_vine_compilation_2013_40_vines__Gz8E7CipdTc'
p187
(F29.97002997002997
I1280
I720
tp188
sS'emu_defends_me_against_attacking_ostrich_BKK4PcoVkt4'
p189
(F29.97002997002997
I1280
I720
tp190
sS'what_dogs_think_about_EDNvK3MYdOc'
p191
(F24.0
I1280
I720
tp192
sS'raw_obama_plays_soccer_with_japanese_robot_ag2vk6coBpI'
p193
(F29.97002997002997
I640
I358
tp194
sS'up_close__gopro_with_central_florida_zoos_new_giraffes_7n9HqGxN-6k'
p195
(F29.97002997002997
I1280
I720
tp196
sS'polar_bears_smash_the_spy_cams__polar_bear_spy_on_the_ice__bbc_one_DvduCPXO_FE'
p197
(F25.0
I1280
I720
tp198
sS'cute_dogs_and_adorable_babies_compilation_ilMzs1UHEmw'
p199
(F30.0
I1280
I720
tp200
sS'cute_pets_rabbit_playing_with_guinea_pig_uiSzoN7gu7o'
p201
(F29.97002997002997
I1280
I720
tp202
sS'driving_dog_prank__just_for_laughs_gags_3Ueg7Q7hO7U'
p203
(F14.985014985014985
I480
I360
tp204
sS'eu_lcs_players_go_offline_to_play_some_football_aka_soccer___s4_eu_lcs_GDgRJWi0o-M'
p205
(F30.0
I1280
I720
tp206
sS'cgi_vfx_breakdown_hd_riding_a_digital_bear__by_fido_HRlaBMPVtxQ'
p207
(F25.0
I1280
I720
tp208
sS'turtle_remix_compilation_mcp9Q7zYm9U'
p209
(F29.97002997002997
I1280
I720
tp210
sS'gopro_hero4_walking_along_street_shops_in_bangkok_sukhumvit_soi_9_to_7_b9eBSWzOoiY'
p211
(F29.97002997002997
I1280
I720
tp212
sS'cut_140604_myungsoo_playing_guitar_and_singing_can_you_smile_N8T7RDie-sM'
p213
(F15.0
I320
I180
tp214
sS'shortbilled_dowitcher__lodmoor_080912_x47s3BUEL3k'
p215
(F29.97002997002997
I1280
I720
tp216
sS'amazing_animal_trick_dog_singing_and_playing_the_piano_UEdnZDBu65M'
p217
(F29.97002997002997
I480
I360
tp218
sS'dog_vs_balloons_CoiFGva_JoY'
p219
(F15.0
I320
I240
tp220
sS'what_is_it_like_wearing_google_glass_on_a_motorcycle__jerryrigeverything_NFq0TYgeB_k'
p221
(F29.97002997002997
I1280
I720
tp222
sS'jogging_with_the_gopro_9VAiOSqkp5o'
p223
(F24.0
I1280
I720
tp224
sS'out_to_lunch_ep_1_rush_swims_Bi4mFyPmoLw'
p225
(F23.976023976023978
I1280
I720
tp226
sS'bear_kills_deer_in_residential_neighborhood_Fg9_ZnojxmU'
p227
(F29.97002997002997
I960
I720
tp228
sS'periscope__hottest_day_of_the_year_lOtP2xNL2-0'
p229
(F24.031
I204
I360
tp230
sS'red_pandas_are_having_snow_much_fun__cincinnati_zoo_DSehQsYU9h4'
p231
(F23.976023976023978
I1280
I720
tp232
sS'newport_beach_photographer__google_glass_explorer__dentist_appointment__anesthesia_McH-TVbo214'
p233
(F30.0
I1280
I720
tp234
sS'gopro_lunch_timelapse_Jg03TTlrbJY'
p235
(F23.976023976023978
I1280
I720
tp236
sS'dog_fight_pit_bull_owner_sues_family_for_1m_dollars_after_her_dogs_killed_their_beagle_sYJf_m0qDiw'
p237
(F29.97002997002997
I1280
I720
tp238
sS'kobe_bryant_plays_soccer_u-vxaWF5aZs'
p239
(F24.0
I440
I330
tp240
sS'david_suzuki_participates_in_totem_pole_raising_ceremony_in_haida_gwaii_the_sacred_balance_excerpt_9p64LWW85fA'
p241
(F29.97002997002997
I1280
I720
tp242
sS'ninja_kitten_smile____lJp30XpK3PA'
p243
(F30.0
I1280
I720
tp244
sS'spiderman_plays_basketball__spiderman_basketball_jukes_iJ4WmpVd2i8'
p245
(F29.97002997002997
I1280
I720
tp246
sS'david_brent_interviews_nigel_pearson__funny__ostrich_ostrichgate_G0uEyJSs-Us'
p247
(F30.0
I606
I360
tp248
sS'rabbits_playing_in_the_snow_X-T4U4BGF2A'
p249
(F30.0
I1280
I720
tp250
sS'taylor_swift_and_zac_efron_sing_a_duet_d8kCTPPwfpM'
p251
(F29.97002997002997
I1280
I720
tp252
sS'gopro_yamaha_jog_rr_50cc_EUl0js3rJqo'
p253
(F23.976023976023978
I1280
I720
tp254
sS'yamingshan_family_lunch_kids_gathering_filmed_by_the_kids_gopro_hero4_black_2xJZ9LVZ8VM'
p255
(F29.97
I1280
I720
tp256
sS'dog_play_piano_and_sing_let_it_go_MT6rtLm-SRw'
p257
(F24.0
I400
I266
tp258
sS'most_funny_talking_dog_videos_compilation_2014_new_hiMjgLaN9cY'
p259
(F30.0
I1280
I720
tp260
sS'shortbilled_dowitcher_at_lodmoor_rspb_dorset_o9hUfQiQY4k'
p261
(F23.976023976023978
I1280
I720
tp262
sS'first_time_playing_flappy_bird_fAP8booMSXY'
p263
(F29.97002997002997
I1280
I720
tp264
sS'recorded_through_google_glass_a_very_happy_dog_VrYKLmQ-FYI'
p265
(F30.0
I1280
I720
tp266
sS'jogging_with_gopro_hero_3_black_edition_10ae7ZtoboQ'
p267
(F30.0
I1280
I720
tp268
sS'teenager_throwing_beach_ball_at_kids_2_umTOKBAxtqc'
p269
(F30.0
I1280
I720
tp270
sS'hd_polar_bear_on_thin_ice__natures_great_events_the_great_melt__bbc_one_Kv9v9ALV3yk'
p271
(F25.0
I1280
I720
tp272
sS'serval_smacks_gopro_10_feet_in_air__cincinnati_zoo_qiBqJR6QtfA'
p273
(F23.976023976023978
I1280
I720
tp274
sS'waving_bears_olympic_wildlife_farm_img_0410_HJexN_ok5qw'
p275
(F29.97002997002997
I1280
I720
tp276
sS'boxing_with_google_glass_on_venice_beach_while_filming_the_tech_trek_NJeUJPF8Gxg'
p277
(F30.0
I1280
I720
tp278
sS'gopro_driving_tour_of_moshi_tanzania_africa_5gqw3HDLtA0'
p279
(F29.97002997002997
I1280
I720
tp280
sS'macaw_baby_hatching_08222011_u7LVQtG7_Pk'
p281
(F29.97002997002997
I480
I360
tp282
sS'paw_patrol_lookout_playset_by_nickelodeon_with_police_dog_chase_tower__disney_pixar_cars_TLRklOUE07A'
p283
(F29.97002997002997
I1280
I720
tp284
sS'totem_poles__talking_trees_whw6tfNStTM'
p285
(F30.0
I480
I360
tp286
sS'how_to_be_better_at_flappy_bird_UobKp2qNyy4'
p287
(F24.0
I1280
I720
tp288
sS'my_cat_tried_to_sneak_some_food_eC_AR3FwD0U'
p289
(F30.0
I202
I360
tp290
sS'really_funny_waving_bears_compilation_pfdu_gTry8E'
p291
(F29.97002997002997
I640
I360
tp292
sS'greater_birdofparadise_KIYkpwyKEhY'
p293
(F29.97002997002997
I1280
I720
tp294
sS'periscope_2__drawing_with_marek__how_to_draw_a_dog_PxtB7Vyu_us'
p295
(F23.307
I202
I360
tp296
sS'slalom_water_skiing_tricks_hot_dog_with_pro_tony_klarich_opening_montage_7r9jpnFdUl8'
p297
(F29.97002997002997
I480
I360
tp298
sS'best_game_of_horse_MkyjgFjgQls'
p299
(F30.0
I1280
I720
tp300
sS'dogs_on_trampolines_compilation_5xcwij-yN8Y'
p301
(F25.0
I1280
I720
tp302
sS'high_jumping_hydro_skies_over_80__xtreme_stunt_dog_z-rGBlxeeWg'
p303
(F29.97002997002997
I720
I720
tp304
sS'monster_truck_dog_pnBieUM1JFU'
p305
(F30.0
I480
I360
tp306
sS'cute_overload_two_year_old_cuddles_up_to_baby_kangaroo_J7nIzLc6P3k'
p307
(F25.0
I640
I360
tp308
sS'1st_bike_ride_with_google_glass_marin_watershed_MUtfMl_rHmk'
p309
(F29.97002997002997
I640
I360
tp310
sS'bear_man_of_finland_has_an_unbreakable_bond_with_brown_bears_RI_f0buRi2c'
p311
(F25.0
I1280
I720
tp312
sS'disney_wonder_cruise_ship_gopro_lap_on_the_jogging_track_rcS0_w0TGr8'
p313
(F30.0
I1280
I720
tp314
sS'funny_westie_dogs_play_in_snow__lFYiabmqJ4'
p315
(F29.97002997002997
I1280
I720
tp316
sS'bear_waving_hello_Q5Mlyi6wFmM'
p317
(F30.0
I1280
I720
tp318
sS'snowmobile_fail__accident_ft_super_mario_DJxLSm41hUk'
p319
(F25.0
I960
I720
tp320
sS'cap_1_bird_bath_wshh_exclusive__official_music_video_nBJgQvlJhms'
p321
(F29.97002997002997
I1280
I720
tp322
sS'ostrich_thing_with_the_balls_joW5PEznxRM'
p323
(F29.97002997002997
I640
I360
tp324
sS'dog_tested_dog_approved_mail_truck_splA4c8iA6I'
p325
(F23.976023976023978
I640
I360
tp326
sS'long_billed_dowitcher______limnodromus_scolopaceus_zH-Ple4wb4M'
p327
(F25.0
I1280
I720
tp328
sS'totem_pole_pat_pend_vs_standard_thule_4bike_carrier__wwwuprightdesignscom_-Isr8vojxgw'
p329
(F30.0
I1280
I720
tp330
sS'the_real_macaw_trailer__guImBVpkeA'
p331
(F30.0
I640
I360
tp332
sS'ski_biking_snow_biking_keystone_colorado_through_google_glass_k7odf4BpSHo'
p333
(F30.0
I1280
I720
tp334
sS'outside_duo_feat_zebra__just_playing_ms8paxU51ZM'
p335
(F25.0
I1280
I720
tp336
sS'overboard_maverick_dog_jumps_on_dolphins_really_funnymust_see_IP5Gaticbc4'
p337
(F29.97002997002997
I1280
I720
tp338
sS'surfing_singing_and_playing_guitar_all_at_once_official_video_V0DQWyb2Wig'
p339
(F23.976023976023978
I1280
I720
tp340
sS'periscopefremont_street_darkside_PiPL6aK_9wE'
p341
(F23.717
I204
I360
tp342
sS'baby_sheep_playing_WW5jPEnHhcc'
p343
(F29.97002997002997
I1280
I720
tp344
sS'waving_bear_r9bZMZw7aVQ'
p345
(F29.97002997002997
I480
I360
tp346
sS'iron__wine__flightless_bird_american_mouth_con_letra_y_subtitulada_SUjJQ25Ahko'
p347
(F24.0
I640
I360
tp348
sS'naughty_dog_throws_away_8_months_of_uncharted_4_work__bg_news_update_rhuRb6YzpX0'
p349
(F30.0
I1280
I720
tp350
sS'crow_playing_with_snow_snowboarding_crow_tUBMSnHH7hc'
p351
(F25.0
I490
I360
tp352
sS'gopro_hero_4_hd_4k_jogging_f8F0cUtrEww'
p353
(F23.976023976023978
I1280
I720
tp354
sS'amazing_crazy_gopro_walking_handstand_cool_pov__mathieu_bolillo_SZBkdklvClI'
p355
(F29.97002997002997
I1280
I720
tp356
sS'horse_breeding_3__belgian_draft_horse_mating_6Q3_52t8eFI'
p357
(F25.0
I1280
I720
tp358
sS'cats_playing_in_snow_compilation_DLjnKcX8gvo'
p359
(F29.97002997002997
I1280
I720
tp360
sS'flappy_bird_t29Pr09pfXc'
p361
(F29.97002997002997
I640
I360
tp362
sS'top_10_biggest_guard_dogs_in_the_world__caucasia__kangal__rotweiler_pitbull__rKewWoHuHcg'
p363
(F23.976023976023978
I1280
I720
tp364
sS'john_mayer_on_periscope_dog_talk_5W9FUHwEBdk'
p365
(F30.0
I640
I360
tp366
sS'real_boxing_kangaroo_funny_BPMo-ao8Zi4'
p367
(F29.97002997002997
I480
I360
tp368
sS'gopro__life_at_the_zoo_B4f-tTdtkIQ'
p369
(F29.97
I1280
I720
tp370
sS'twin_babies_playing_with_balloons_yrmn_jcoYOc'
p371
(F30.0
I1280
I720
tp372
sS'myrtle_beach_sling_shot__google_glass_h1F_IL6luv8'
p373
(F29.97002997002997
I1280
I720
tp374
sS'waving_bear_smiles_dQwZSlovf1I'
p375
(F30.0
I480
I360
tp376
sS'mercuryfilled_water_balloon___science_7HPxeASxXW0'
p377
(F29.97002997002997
I1280
I720
tp378
sS'best_funny_and_cute_dog_videos_compilation_2014_NyFBbQrNLjA'
p379
(F29.97002997002997
I1280
I720
tp380
sS'buttermilk_plays_with_her_friends_5IuRzJRrRpQ'
p381
(F30.0
I480
I360
tp382
sS'google_glass_from_a_dogs_point_of_view_WHdQ0DaCBrw'
p383
(F30.0
I568
I320
tp384
sS'incredible_footage_of_bbc_cameraman_and_hungry_polar_bear_BIql1ZpHovs'
p385
(F25.0
I1280
I720
tp386
sS'lunch_break__gopro_go_skate_it__a_dhfreeride_short_6-3cdVBPbrY'
p387
(F23.976023976023978
I1280
I720
tp388
sS'my_cat_is_shy_on_periscope_Z1LnBDwB4N8'
p389
(F24.0
I202
I360
tp390
sS'tiny_horse_cute_steed_suffers_from_dwarfism_7abf2Vyesrs'
p391
(F25.0
I1280
I720
tp392
sS'dolphin_and_dog_playing_xcuLwrqN7SQ'
p393
(F25.0
I640
I360
tp394
sS'dangerous_dog_play_what_is_too_rough_O8MUbmaains'
p395
(F30.0
I1280
I720
tp396
sS'totem_poles_are_stupid_RN4Zk7sUR_A'
p397
(F25.0
I1280
I720
tp398
sS'living_with_tigers_family_share_home_with_pet_tigers_xwidefc2wpc'
p399
(F25.0
I1280
I720
tp400
sS'periscope__mA4XNhoym4'
p401
(F29.97002997002997
I640
I360
tp402
sS'munchkin_cat_pops_water_balloons_MSkDGa9Ei4U'
p403
(F23.976023976023978
I1280
I720
tp404
sS'wwt_slimbridge_longbilled_dowitcher_8cvunBaS_HM'
p405
(F23.976023976023978
I1280
I720
tp406
sS'amazing_jam_session__three_random_guys_sing_together_cUFVR5sgbt0'
p407
(F29.8
I640
I356
tp408
sS'twitter_launches_live_video_streaming_app_periscope_rN3_Frw5OpE'
p409
(F29.97002997002997
I1280
I720
tp410
sS'brown_bear_attack_0ThZ8dc2B8E'
p411
(F29.97002997002997
I640
I360
tp412
sS'gopro_out_to_lunch_ep_2_spirit_huckfest_with_rush_sturges__ben_marr_uotTDFXvjAU'
p413
(F23.976023976023978
I1280
I720
tp414
sS'at_the_apple_store_lincoln_road_miami_beach_with_google_glass_E4FiMtWj7io'
p415
(F29.916666666666668
I1280
I720
tp416
sS'how_to_mount_a_horse_bareback_SWIRvEb1GgE'
p417
(F25.0
I1280
I720
tp418
sS'rabbit_playing_with_balloon_funny_vidio_E5Z4iUcqs2A'
p419
(F30.0
I480
I360
tp420
sS'best_basketball_vines_compilation_vol_2_Ekt0gHCZg6k'
p421
(F25.0
I1280
I720
tp422
sS'google_glass_catching_a_fish_on_a_beach_on_the_gulf_of_mexico_in_marco_island_fl__rfThJt6ORs'
p423
(F30.0
I1280
I720
tp424
sS'hopping_sheep_plays_tag_with_a_dog__9yl3g_enAw'
p425
(F30.0
I480
I360
tp426
sS'playdoh_snow_cones_popsicle_rainbow_colors_yummy_treats_and_more__iOdTadkrxQ'
p427
(F23.976023976023978
I1280
I720
tp428
sS'funny__rabbit_playing_with_cat_O25AHYHsIR0'
p429
(F29.97002997002997
I1280
I720
tp430
sS'periscope_east_grinstead_high_street_mWhNhRhKBAc'
p431
(F24.017
I204
I360
tp432
sS'biking_nyc_bridges_with_google_glass_VcQYLaCaFLw'
p433
(F29.97002997002997
I1280
I720
tp434
sS'ostrich_attacks_kid_video_8LLly-L77kw'
p435
(F30.0
I320
I240
tp436
sS'talking_macaw_-f3Wxn75smM'
p437
(F29.97002997002997
I480
I360
tp438
sS'whats_it_like_having_2_macaws_in_one_house_KdWpjemchG8'
p439
(F29.97002997002997
I480
I360
tp440
sS'how_to_play_defense_in_soccer_XbdedDgzEsQ'
p441
(F29.97002997002997
I1280
I720
tp442
sS'orphaned_baby_rhino_and_goat_are_best_friends_youtube_vide_new_zzqbHZNfW_c'
p443
(F30.0
I480
I360
tp444
sS'its_all_about_the_stripes_welcome_baby_zebra_UkvwA1cfBCo'
p445
(F29.97002997002997
I1280
I720
tp446
sS'gopro_polar_bears__the_quest_for_sea_ice_hYM4ndcV4Uo'
p447
(F29.97002997002997
I1280
I720
tp448
sS'new_robot_dog_jump_testing_may_2015_OdBJNhhBlmE'
p449
(F29.97002997002997
I1280
I720
tp450
sS'hyacinth_macaw_ZFGGfucMUEc'
p451
(F29.97002997002997
I960
I720
tp452
sS'worlds_fattest_dogs_top_5_WPMDS4l1RKw'
p453
(F29.97002997002997
I1280
I720
tp454
sS'kid_gets_hit_by_beachball_NGzRK1BFneU'
p455
(F29.833333333333332
I1280
I720
tp456
sS'my_horse_riding_morning_routine_vN7tODbND2s'
p457
(F25.0
I640
I360
tp458
sS'frankie_eats_lunch_gopro_timelapse_zncpmVRBoqw'
p459
(F23.976023976023978
I1280
I720
tp460
sS'impressive_jumping_pitbull__climbing_wall_YLS8CVBYCvM'
p461
(F29.97002997002997
I1280
I720
tp462
sS'why_cant_every_city_be_portland__cat_music_video__the_doubleclicks_n6-P89qG9GY'
p463
(F23.976023976023978
I1280
I720
tp464
sS'periscope__free_kick_against_cheating_dog_GCOgp6mxVEg'
p465
(F23.953
I204
I360
tp466
sS'how_to_play_acoustic_guitar__lessons_for_beginners__strumming_chords_pt_1_Ndg0sJ2dXUM'
p467
(F30.0
I480
I360
tp468
sS'right_this_minute_tv_showchop_with_chrisdog_sled_31AGEcXQBbA'
p469
(F30.0
I1280
I720
tp470
sS'gopro_walking_on_penang_national_park__malaysia_trip_T5tU_C_g21A'
p471
(F23.976023976023978
I1280
I720
tp472
sS'the_balloon_show_for_learning_colors__childrens_educational_video_belCJJjut1A'
p473
(F25.0
I1280
I720
tp474
sS'cheetah__zebra_playing_together__epic_peace_k5MoLPYWFYk'
p475
(F29.97002997002997
I640
I360
tp476
sS'playing_ball_QqLU-o7N7Kw'
p477
(F30.0
I480
I360
tp478
sS'amazing_transformation_of_rescued_street_dog_dying_from_mange_-5cNwv2nI34'
p479
(F29.97002997002997
I1280
I720
tp480
sS'horse_and_zebra_play_fighting_XnJvHFJ-RGI'
p481
(F30.0
I1280
I720
tp482
sS'lunch_break_gopro_jplgUdeL020'
p483
(F29.97
I1280
I720
tp484
sS'spectacled_bear_waving_BJ0lywFb6qc'
p485
(F29.97002997002997
I1280
I720
tp486
sS'flappy_bird_ruined_my_life_f49tDCYP6yk'
p487
(F23.976023976023978
I1280
I720
tp488
sS'gopro_lunch_at_surfcamp_eAlxXhNme_k'
p489
(F29.97002997002997
I1280
I720
tp490
sS'black_veil_brides__andy_playing_guitar__cover_funny__danzig__sub_espaol_CDDxczXkNJM'
p491
(F25.0
I1280
I720
tp492
sS'merome_plays_in_the_snow_bajancanadian_loves_jeromeasf_Wz4YsaDSEcA'
p493
(F30.0
I1280
I720
tp494
sS'waving_bear_makes_an_amazing_catch__funniest_bear_video_Mde4Asp66iM'
p495
(F30.0
I1280
I720
tp496
sS'how_to_stop_your_dog_jumping_up_7mPqr4rDxCQ'
p497
(F25.0
I640
I360
tp498
sS'cute_bunny_cooper_plays_dead_rabbit_video_My0IwSEn_Kg'
p499
(F30.0
I568
I320
tp500
sS'gopro_man_fights_off_great_white_shark_in_sydney_harbour_-m3N_BnVdOI'
p501
(F25.0
I640
I360
tp502
sS'angry_birds_vs_flappy_bird___3d_animated__game_mashup___funvideotv__style__OuXtk4GaTeQ'
p503
(F25.0
I640
I360
tp504
sS'cookie_monster_eats_birthday_balloons_from_monkey__playing_with_toys_f105QW8bTkA'
p505
(F29.97002997002997
I1280
I720
tp506
sS'early_birds_vs_night_owls_BPJ0729NVjw'
p507
(F29.97002997002997
I1280
I720
tp508
sS'bruiser_bear_I-yqvT8vKZc'
p509
(F30.0
I1280
I720
tp510
sS'worlds_largest_gummy_bear_HBa458RoLpw'
p511
(F29.97002997002997
I1280
I720
tp512
sS'susanfinch_on_periscope_black_lab_test_vPreUXj8elI'
p513
(F24.0
I202
I360
tp514
sS'wrr27_riding_the_ice_bear_mad_dog__merry_christmas_y1SI0Eam0iU'
p515
(F29.97002997002997
I1280
I720
tp516
sS'epic_exercise_ball_fails__failarmy_7-RRVdEhm_o'
p517
(F25.0
I1280
I720
tp518
sS'longbilled_dowitcher_at_lodmoor_8ZThL2iY5Tw'
p519
(F30.0
I480
I360
tp520
sS'dog_jacks_kids_sled_original_2L2ZVjeLS3g'
p521
(F30.0
I480
I360
tp522
sS'subaru_dog_tested_road_trip_convenience_store_VDut1RkQP_s'
p523
(F23.976023976023978
I1280
I720
tp524
sS'my_chemical_romance_on_tour_bus_and_playing_guitar_hero_N1f4uUj01HE'
p525
(F29.97002997002997
I320
I240
tp526
sS'ice_bear_maddog_gy6_ruckus_replica_review_FrXyf87cLmQ'
p527
(F30.0
I1280
I720
tp528
sS'grizzly_bear_encounter_He7RsjcRiGM'
p529
(F29.97002997002997
I480
I360
tp530
sS'airwheel_x3_with_gopro__best_way_to_get_to_lunch_kqA7LGyP9ZU'
p531
(F30.0
I1280
I720
tp532
sS'google_glass_biking_moran_state_park_tH9uNLRbSZs'
p533
(F30.0
I1280
I720
tp534
sS'one_direction_play_with_helium_balloonsflv_9FNXv9EqvDI'
p535
(F25.0
I640
I360
tp536
sS'brolly_periscope_edinburgh_festival_fringe_fancies_2010_VWKcaMaYcAQ'
p537
(F29.97002997002997
I1280
I720
tp538
sS'rescuing_a_homeless_senior_dog_from_a_water_treatment_facility__please_share_5e_cr7tbc7w'
p539
(F29.97002997002997
I1280
I720
tp540
sS'capital_cities_and_fitz_and_the_tantrums___kangaroo_league_nkIVjw7lZoA'
p541
(F29.97002997002997
I1280
I720
tp542
sS'hehehe_bird_-_v7X9tWO5s'
p543
(F30.0
I640
I360
tp544
sS'google_glass_muscle_beach_rope_climb_throughglass_Ff8a4yR4g-o'
p545
(F30.0
I1280
I720
tp546
sS'ski_best_jumps__ski_tricks__freestyle_skiing__freeskiing__extreme_sports_2015__eeCoNywb45U'
p547
(F30.0
I1280
I720
tp548
sS'imagenes_de_pole_bear_pqbTuAp8ziQ'
p549
(F30.0
I480
I360
tp550
sS'tvppiu__singing_with_guitar_______come_to_play__YSG0pYcIw0'
p551
(F29.97002997002997
I1280
I720
tp552
sS'walking_around_gangnamshillim_with_gopro_hero_3_black_chest_mount_harness_zyIcDxbkfl8'
p553
(F29.97002997002997
I1280
I720
tp554
sS'beach_ball_tantrum_oa6znlKBFAg'
p555
(F30.0
I406
I720
tp556
sS'fred_the_footballplaying_sheep_from_new_zealand_GIbbiBlRBFE'
p557
(F25.0
I640
I360
tp558
sS'peppa_pig_eating_playdoh_pizza_gardening_together_zoe_zebra_toy_alltoycollector_obl3d-fQxYk'
p559
(F29.97002997002997
I1280
I720
tp560
sS'flappy_bird__high_score_999_impossible_YHH2101OFfI'
p561
(F29.97002997002997
I1280
I720
tp562
sS'blue__gold_macaw_loves_to_be_vacuumed_xRbC6ePUHUg'
p563
(F29.791459781529294
I406
I720
tp564
sS'dog_facts_vs_cat_facts_BkV5fvdquXw'
p565
(F23.976023976023978
I1280
I720
tp566
sS'top_5_soccer_goals_20122013__sick_goals__hd_Oo3f1MaYyD8'
p567
(F25.0
I1280
I720
tp568
sS'monster_jam_dog_truckmov_-pfQ1L1Wk-E'
p569
(F29.97002997002997
I1280
I720
tp570
sS'bird_sings_to_dog_during_lunch__meal_time_serenade_TbfJXsMPVSk'
p571
(F29.97002997002997
I1280
I720
tp572
sS'just_dance_kids_2__the_gummy_bear_song_wii_rip_5hn61z3FlMQ'
p573
(F29.97002997002997
I480
I360
tp574
sS'amazing_ski_tricks__mini_edit__go_pro_hero_2_hd_fJOYcjBNM6c'
p575
(F29.97002997002997
I1280
I720
tp576
sS'top_10_snowmobile_crashes_and_fails_VxB09BIoVCY'
p577
(F29.97002997002997
I1280
I720
tp578
sS'giraffe_and_zebra_play_fight_OAV8PB-om_U'
p579
(F29.97002997002997
I1280
I720
tp580
sS'rocket_the_goat_playing_peek_a_goat_1azLzLxYluY'
p581
(F30.0
I406
I720
tp582
sS'gopro_driving_YnDUI84-maw'
p583
(F29.97002997002997
I1280
I720
tp584
sS'atv_news_worlds_best_corn_dog_truck_3pomxHnr8DA'
p585
(F29.97002997002997
I1280
I720
tp586
sS'horse_jumping_simulator_L0HpOXBeF_4'
p587
(F29.97002997002997
I640
I360
tp588
sS'short_billed_dowitcher_uty43B5lp6k'
p589
(F25.0
I480
I360
tp590
sS'hiking_the_austrian_alps__gopro_edit_D9QwdSSA6GM'
p591
(F29.97002997002997
I1280
I720
tp592
sS'gopro_captures_samar_cobras_hatching_at_dallas_zoo_PzYkDJaqUg4'
p593
(F29.97002997002997
I1280
I720
tp594
sS'bomb_bird_stars_in_angry_birds_update__short_fuse_Dv54QkH6ocg'
p595
(F24.0
I1280
I720
tp596
sS'hitler_plays_flappy_bird_LlgSU5vWW-Y'
p597
(F29.97002997002997
I1280
I720
tp598
sS'kangaroo_and_dog_showing_their_love_for_each_other__amazing_Isn1Ym4fzag'
p599
(F29.97002997002997
I1280
I720
tp600
sS'lamborghini_huracan_vs_snowmobileand_huskies_A2W8MWLw8mI'
p601
(F25.0
I1280
I720
tp602
sS'places_to_mount_while_driving_gopro_mounting_tips_and_tricks_p5A7zHGluG0'
p603
(F29.97002997002997
I960
I720
tp604
sS'puriums_cracked_cell_chlorella__event_our_cat_loves_it_lxjF-iJboLc'
p605
(F22.946
I202
I360
tp606
sS'amazing_singer_at_covent_garden__london__rob_falsini__chasing_cars_snow_patrol_edHwDnyoFWw'
p607
(F25.0
I1280
I720
tp608
sS'the_talk__carrie_underwoods_dogs_accidentally_locked_her_baby_inside_her_car_4jGnBqbXRlM'
p609
(F29.97002997002997
I1280
I720
tp610
sS'snowmobile_grass_wheelies_NGyGFYOB1Ko'
p611
(F29.97002997002997
I1280
I720
tp612
sS'catzooka__cat_launcher_fm0KmBXgaFg'
p613
(F23.976023976023978
I1280
I720
tp614
sS'icebear_maddog_ruckus_clone_custom_modded_gy6_usQCaXhK5Og'
p615
(F30.0
I1280
I720
tp616
sS'zebra_playing_G16fmAfdp9A'
p617
(F30.0
I480
I360
tp618
sS'nyc_bike_ride_via_google_glass_hf2sQVyAEQY'
p619
(F29.97002997002997
I1280
I720
tp620
sS'extreme_slalom_water_skiing_tricks_front_flip_with_tony_klarich_V8Gh-A_v_Gw'
p621
(F29.97002997002997
I480
I360
tp622
sS'baby_dances_to_his_dads_guitar_playing_kFTmw8XsufU'
p623
(F30.0
I320
I240
tp624
sS'biking_through_google_glass_aU5e3kuXkEI'
p625
(F30.0
I1280
I720
tp626
sS'gazza_vs_ostrich_4e7HYxEBxBQ'
p627
(F25.0
I640
I360
tp628
sS'cats_and_dogs_meeting_babies_for_the_first_time__cute_animal_compilation_YB2WHOtmSHQ'
p629
(F29.97002997002997
I1280
I720
tp630
sS'bad_dog_3_z3Uuzff4I'
p631
(F23.976023976023978
I1280
I720
tp632
sS'meet_camaro__our_21_year_old_blue__gold_macaw_muWQpUahYM0'
p633
(F29.97002997002997
I1280
I720
tp634
sS'duracell_commercial_the_teddy_bear_mQaeXWtvprM'
p635
(F23.976023976023978
I1280
I720
tp636
sS'crazy_cute_baby_lamb_playing_and_jumping_have_a_lot_of_fun_GF6srBYEaCo'
p637
(F25.0
I1280
I720
tp638
sS'sled_dogs_more_than_meets_the_eye_6nVfFNbxX7s'
p639
(F23.976023976023978
I1280
I720
tp640
sS'how_to_play_snow_hey_oh_riff_by_red_hot_chili_peppers_o7vWiJvgYQg'
p641
(F25.0
I1280
I720
tp642
sS'sled_dogs_inline_snowskates_explained_hz-Vg9ojswI'
p643
(F25.0
I1280
I720
tp644
sS'google_glass__rollerblading_on_venice_beach_tYQSomHt7Ig'
p645
(F30.0
I1280
I720
tp646
sS'nepal_gopro_walking_through_devastated_kathmandu_bPD-fCuEOj4'
p647
(F25.0
I1280
I720
tp648
sS'face_team_basketball_acrobatics__britains_got_talent_2012_audition__international_version_oHbeguUPmVE'
p649
(F25.0
I640
I360
tp650
sS'cutewinfail_dog_sled_hSrirDNwEVM'
p651
(F29.97002997002997
I1280
I720
tp652
sS'magic_kingdom_railway_ride_from_fantasyland_to_main_street_usa_8emOH7TYyfQ'
p653
(F23.91
I202
I360
tp654
sS'cat_and_macaw_get_along_VqWHGmcSnFw'
p655
(F30.0
I480
I360
tp656
sS'hackhd_vs_gopro_while_driving_in_the_day_1080p_hd_comparison_video_0_xHYvxSH0Q'
p657
(F29.97002997002997
I1280
I720
tp658
sS'super_dog_can_do_all_house_work__amazing_8OIR1Pu2t4o'
p659
(F24.0
I1280
I720
tp660
sS'dog_with_muzzle_taped_shut_saved_by_good_samaritan_bOdZvJCqmK8'
p661
(F29.97002997002997
I1280
I720
tp662
sS'amazing_pettiger_is_playing_with_man_amazing_lol_apmmaex9hgM'
p663
(F30.0
I400
I300
tp664
sS'one_week_old_baby_goats_playing_YjyFdT-N7Z4'
p665
(F29.97002997002997
I1280
I720
tp666
sS'play_doh_disney_princess_barbie_snow_white_princess_dress_gown_from_playdoh_on_barbie_Wfoc2BRZxJQ'
p667
(F29.97002997002997
I1280
I720
tp668
sS'gopro_hero_bootleg_hd__runningjogging_to_the_gulf_course_in_tampa_florida_ywanklo7Taw'
p669
(F30.0
I1280
I720
tp670
sS'how_to_play_soccer__how_to_juggle_a_soccer_ball_T_FI8nIn9YE'
p671
(F29.97002997002997
I480
I360
tp672
sS'go_periscope__chick_flick_tears_U9yWLppLIGA'
p673
(F30.0
I480
I360
tp674
sS'dog_with_a_blog__truck_stops_here_song_CWJsuT3Hdro'
p675
(F29.97002997002997
I1280
I720
tp676
sS'catnip__simons_cat_a_christmas_special_UhQ9HquDNEM'
p677
(F25.0
I1280
I720
tp678
sS'rabbit_playing_with_dog__in_memory_of_two_wonderful_pets_jp_UsR1J0VY'
p679
(F15.0
I192
I144
tp680
sS'vw_scirocco_rline_20_tdi_184bhp_pov_test_drive_gopro_F5yxIO3PtJs'
p681
(F23.976023976023978
I640
I360
tp682
sS'myrtle_beach_slingshot_through_google_glass_Kvcq7K6Kh5g'
p683
(F29.97002997002997
I1280
I720
tp684
sS'day_1_wrap_for_pepper_the_movie__google_glass_explorer__newport_beach_photographer_CqfwMJ_w3c8'
p685
(F30.0
I1280
I720
tp686
sS'timelapse_gopro_while_driving_-7pp5UfOTJA'
p687
(F29.97002997002997
I1280
I720
tp688
sS'explorer_interrupts_mating_tortoises_slowest_chase_ever_ensues_RjtCS0EEoCY'
p689
(F23.976023976023978
I1280
I720
tp690
sS'zoosafari_fasanolandia_drone_video_zoo_gopro_FW-n7jrsJn0'
p691
(F25.0
I1280
I720
tp692
sS'jogging_along_the_canal_with_gopro_9MRhtgIuGt8'
p693
(F25.0
I1280
I720
tp694
sS'periscope_app_cool_creepy_or_too_many_fridges_-S6aKgnZgFI'
p695
(F30.0
I640
I360
tp696
sS'horse_riding__show_jumping_girl__glidecam_hd_2000_F1o-XZcMLXo'
p697
(F29.97002997002997
I1280
I720
tp698
sS'girl_bouncing_on_yellow_beach_ball_4q7OmdAEzCo'
p699
(F24.0
I450
I360
tp700
sS'lego_pim_in_dog_sled_p0MFIgwM7GA'
p701
(F30.0
I1280
I720
tp702
sS'ciahow_to_stop_a_dog_from_jumping_on_people_in_less_than_60_secondsm4v_OYzf2x-TP78'
p703
(F25.0
I640
I360
tp704
sS'what_it_takes_to_play_soccer_like_a_girl_FTCsULdBMv4'
p705
(F25.0
I1280
I720
tp706
sS'masha_and_the_bear__christmas_song_one_two_three_light_the_chistmas_tree_b2TNo4A7QNA'
p707
(F25.0
I1280
I720
tp708
sS'best_basketball_vines_compilation_vol_9_2v3O-jh9PQk'
p709
(F29.97002997002997
I1280
I720
tp710
sS'baby_kangaroo_swimming_at_the_beach_gFEB1VyvZEA'
p711
(F15.0
I320
I240
tp712
sS'if_i_had_google_glass_dog_glass_tYgnWiOTsQI'
p713
(F24.0
I1280
I720
tp714
sS'goat_plays_dead_when_scaredlol_IA4PyWuDMps'
p715
(F30.0
I360
I360
tp716
sS'100_mile_wilderness_sled_dog_race_Qv4I_MDX7ws'
p717
(F29.97002997002997
I1280
I720
tp718
sS'kids_fighting_over_beach_ball_YxxY26hN2yE'
p719
(F29.97002997002997
I204
I360
tp720
sS'memorable_moment_playing_golf_with_tiger_woods_dBVJ1UiuUxI'
p721
(F29.97002997002997
I1280
I720
tp722
sS'beach_volleyball_through_glass_bpfak_VIJ8o'
p723
(F29.97002997002997
I1280
I720
tp724
sS'the_vow_soundtrack__leo_playing_guitarfrom_movie_WD-OqOlsBB0'
p725
(F29.97002997002997
I960
I720
tp726
sS'cat_logic_K3p0EFtJIn8'
p727
(F23.976023976023978
I1280
I720
tp728
sS'periscope_dnya_elizabeth_banks_monday_hike_get_up_get_outside_get_into_nature_shes_so_cute_fQYFutCKwA8'
p729
(F30.0
I1280
I720
tp730
sS'giant_inflatable_beach_ball_from_thinkgeek_-An_27pWfFA'
p731
(F23.976023976023978
I1280
I720
tp732
sS'cute_baby_goats_compilation__cfs_QL6Ws4i07is'
p733
(F29.97002997002997
I640
I360
tp734
sS'7_year_old_mini_band_guitarist_zoe_thomson_plays_sweet_child_o_mine_by_gun_n_roses_X4Kjtp4sA9E'
p735
(F24.0
I1270
I720
tp736
sS'rabbit_playing_2ItuORiBeRI'
p737
(F20.0
I320
I240
tp738
sS'capital_cities__kangaroo_court_forever_kid_remix_p_Xv0mmPZJE'
p739
(F25.0
I1280
I720
tp740
sS'stetson_rolling_in_the_snow__horse_playing_in_snow__AFkZdbuOcDo'
p741
(F30.0
I480
I360
tp742
sS'baby_playing_with_sheep_QjijH6HEnHo'
p743
(F29.666666666666668
I1280
I720
tp744
sS'periscope_1_million_users_in_first_10_days__tech_bet__cnbc_Brh5Glz1yc8'
p745
(F29.97002997002997
I1280
I720
tp746
sS'baby_zebrampg_FX68k6Isb38'
p747
(F25.0
I640
I360
tp748
sS'10_hours_of_walking_in_nyc_as_a_woman_b1XGPvbWn0A'
p749
(F29.97002997002997
I1280
I720
tp750
sS'bear_cub_rescued_by_raft_guide_from_river_after_struggling_for_days_d16Rc0XoLY4'
p751
(F30.0
I1280
I720
tp752
sS'baby_chimp_tigers_and_wolf_playing_w4c-mJ1DR24'
p753
(F24.0
I1280
I720
tp754
sS'spoiled_rabbit_growls_and_thumps_when_petting_stops_BWkmEhNYVF0'
p755
(F29.97002997002997
I640
I360
tp756
sS'south_beach_with_google_glass_2015_OWtINKEEshs'
p757
(F29.97002997002997
I1280
I720
tp758
sS'spiderman_basketball_part_4_feat_captain_america_bUyXalMwcr4'
p759
(F23.976023976023978
I1280
I720
tp760
sS'teenage_mutant_ninja_turtles_official_movie_clip__the_elevator_2014__ninja_turtle_movie_hd_CTcy51kHDTM'
p761
(F23.976023976023978
I1280
I720
tp762
sS'graham_holmberg_and_the_new_rogue_dog_sled_bc3rgtYZnh0'
p763
(F29.97002997002997
I1280
I720
tp764
sS'historic_totem_pole_documentation_sitka_national_historical_park_alaska_k5UaZVoytIM'
p765
(F29.97002997002997
I1280
I720
tp766
sS'adorable_baby_lambs_5EbATpgZEMw'
p767
(F29.97002997002997
I1280
I720
tp768
sS'cute_puppy_goat_compilation_0G5HMziQrYk'
p769
(F29.97002997002997
I1280
I720
tp770
sS'jogging_with_gopro_hero3_black_edition_head_strap_WzBx-hMfRtc'
p771
(F29.97002997002997
I1280
I720
tp772
sS'the_rosie_meader_trio_playing_john_butlers_zebra_wf_oJwqyt3U'
p773
(F25.0
I1280
I720
tp774
sS'florida_woman_keeps_bengal_tigers_in_her_garden_8pGTgkcP-RU'
p775
(F25.0
I1280
I720
tp776
sS'biking_with_google_glass_0uBKEGNbzic'
p777
(F30.0
I1280
I720
tp778
sS'google_glass_west_haven_beach_endangered_birds_ZzMenRaTZEI'
p779
(F30.0
I568
I320
tp780
sS'turtle_flip_-tPdmbnw6bc'
p781
(F29.97002997002997
I1280
I720
tp782
sS'cat_hug_Sjo-BLLqA3E'
p783
(F23.976023976023978
I1280
I720
tp784
sS'how_to_draw_easy_things__kawaii_summer__beach_ball__fun2draw_cartoon_art_lessons_t2qoOawcyWs'
p785
(F29.97002997002997
I640
I360
tp786
sS'cheetah_savanna_and_dog_max_play_in_snow__cincinnati_zoo_l0rDeIOI54g'
p787
(F30.0
I1280
I720
tp788
sS'texas_turkeys_play_soccer_super_funny_In5s7r6JQW0'
p789
(F13.0
I480
I360
tp790
sS'baby_kittens_playing_with_ballons__funniest_kitten_videos_kTRRpDeo3aM'
p791
(F25.0
I1280
I720
tp792
sS'kodiak_bear_waving_MNWOesnAWyE'
p793
(F30.0
I480
I360
tp794
sS'gopro_driving_timelapse_test_05sec_1sec_2sec__5sec_interval_comparison_WMrcq0cTjeU'
p795
(F29.97002997002997
I1280
I720
tp796
sS'macaw_in_the_shower_ieMyajkMEVo'
p797
(F30.0
I480
I360
tp798
sS'awesome_becca_and_her_dog_playing_GMBy6AjDEHk'
p799
(F24.0
I1280
I720
tp800
sS'dozens_of_baby_goats__kids__jumping_yelling_and_playing__hd_footage_cVQUaecTlpU'
p801
(F29.97002997002997
I1280
I720
tp802
sS'tiger_vs_dog_pack_igQRWZJklIo'
p803
(F30.0
I480
I360
tp804
sS'limnodromus_scolopaceus__long_billed_dowitcher_female__samutprakan_20121215_JNHZhPKORTo'
p805
(F25.0
I1280
I720
tp806
sS'pygmy_goat_kid_playing_K3CWpT010Pc'
p807
(F30.0
I480
I360
tp808
sS'bluenose_pitbull_puppies_playing_with_balloons_iXInVGGsu_k'
p809
(F29.97002997002997
I960
I720
tp810
sS'creationist_cat_directors_commentary_for_get_your_mouth_away_from_my_dick_6DVB5d8vAWw'
p811
(F29.97002997002997
I1280
I720
tp812
sS'kangaroo_fighting_or_is_it_kangaroo_boxing_in_the_ring_LP3qZhdmhGQ'
p813
(F25.0
I400
I320
tp814
sS'fort_worth_zoos_gibbons_check_out_the_gopro_yhUPHmxPhx8'
p815
(F29.97002997002997
I1280
I720
tp816
sS'dog_plays_piano_and_sings_xLrLlu6KDss'
p817
(F29.97002997002997
I1280
I720
tp818
sS'millie_periscope_cat_fv3q6RUrGLk'
p819
(F29.97002997002997
I480
I360
tp820
sS'jerry_needs_no_help_playing_with_his_ball_4PcL6-mjRNk'
p821
(F30.0
I480
I360
tp822
sS'best_dog_birthday_surprise_diy_ball_pit_for_maymo_1kgmfPClsZc'
p823
(F29.97002997002997
I1280
I720
tp824
sS'monster_school_in_real_life_episode_5_basketball__minecraft_animation_jl_ihY3WdlQ'
p825
(F23.976023976023978
I1280
I720
tp826
sS'real_live_grizzly_bear_waving_at_us_AZ1OhFu9ttE'
p827
(F23.976023976023978
I1280
I720
tp828
sS'brave_pet_cat_stands_up_to_mountain_lion__cute_cats_vs_mountain_lion_Vnmxg4h_Mio'
p829
(F29.97002997002997
I1280
I720
tp830
sS'google_glass_biking_through_sonoma_county_dKUjuPXtdFw'
p831
(F29.97002997002997
I960
I720
tp832
sS'giant_bear_waves_and_says_hi_EOxtpjJ75S4'
p833
(F24.0
I960
I720
tp834
sS'a_man_playing_guitar_is_joined_by_two_strangers_in_an_impromptu_street_performance_CRH5U5XKb2Q'
p835
(F29.833333333333332
I640
I356
tp836
sS'basketball_wives_la__no_mercy_teaser__premieres_sunday_july_12__98c__vh1_jYTAlzE-Bcc'
p837
(F29.97002997002997
I1280
I720
tp838
sS'alvin_hall_ostrich_attack_P8QHw9lrMao'
p839
(F25.0
I320
I240
tp840
sS'ostrich_farmer_helen_wall_alden_iowa_e4vtz6dJR4U'
p841
(F30.0
I1280
I720
tp842
sS'jeff_rides_an_ostrich_SEd8VhzCvDs'
p843
(F29.97002997002997
I1280
I720
tp844
sS'extreme_waterskiing__tricks_on_a_ho_slalom_ski_qU_605hliNw'
p845
(F25.0
I480
I360
tp846
sS'bob_marley_playing_soccer_87WW1aCmVZA'
p847
(F29.97002997002997
I1280
I720
tp848
sS'rip_flappy_bird__super_mario_plays_flappy_bird_9-gGvM_eb_A'
p849
(F29.97002997002997
I1280
I720
tp850
sS'ronald_mcdonald_hates_flappy_bird_snsHiY3RFmk'
p851
(F25.0
I1280
I720
tp852
sS'super_hero_soccer_tzajk7kciv4'
p853
(F24.0
I1280
I720
tp854
sS'barbie_saddle_n_ride_horse_jump_and_ride_pony_barbie_doll_toy_review_by_disneycartoys_UCevdMtT9gM'
p855
(F29.97002997002997
I1280
I720
tp856
sS'basketball_fails__funny_moments_elite_bloopers_vol_5_M-dwDf5pID8'
p857
(F29.97002997002997
I1280
I720
tp858
sS'ostrich_beat_up_monkey_man_and_hyaena_i7QGu4UkGKo'
p859
(F23.976023976023978
I640
I276
tp860
sS'grizzly_bear_smashes_glass_at_zoo_exhibit_6EseIRmOJls'
p861
(F30.0
I1280
I720
tp862
sS'stephen_curry_pick_and_roll_split__nba_basketball_moves_dmlZKiuO2P8'
p863
(F29.97002997002997
I1280
I720
tp864
sS'river_otters_playing_in_the_snow_I39g_GGKDYs'
p865
(F29.97002997002997
I1280
I720
tp866
sS'baby_goat_playing_with_cat_7_f6p0XB3Nw'
p867
(F13.01
I480
I360
tp868
sS'how_to_tell_if_your_turtle_is_male_or_female_Zy_QWctnPj0'
p869
(F29.97002997002997
I1280
I720
tp870
sS'horse_and_zebra_playing_river_flows_in_you_in_vienna_5mPZ-AjEg0w'
p871
(F30.0
I1280
I720
tp872
sS'erika_lang__teenage_us_champion_trick_water_skier_z-MP3g269ac'
p873
(F29.97002997002997
I1280
I720
tp874
sS'dewey_kids_beach_party__beach_ball_bounce_part_2_O2wlNCtLrGc'
p875
(F30.0
I1280
I720
tp876
sS'ailiph_doepatotem_poleofficial_music_video_3SEz38nAykQ'
p877
(F29.97002997002997
I1280
I720
tp878
sS'longbilled_dowitcher_limnodromus_scolopaceus_askviken_xAhmsdMsAKM'
p879
(F29.97002997002997
I1280
I720
tp880
sS'dog_and_magpie_bird_playing_mqD9LWkaupQ'
p881
(F25.0
I400
I224
tp882
sS'tiger_cub_lion_cub_and_puppies_playing_XVSpMIxwgjc'
p883
(F29.97002997002997
I1280
I720
tp884
sS'baby_rhinos_friend_skaap_the_sheep_Ay9Ca2u_f3I'
p885
(F25.0
I480
I360
tp886
sS'wild_google_glass_pov_on_skate_board__venice_beach_skate_park_37uMkGPaGEI'
p887
(F30.0
I1280
I720
tp888
sS'epic_10000_water_balloon_fight_MPb9wrSSgPc'
p889
(F30.0
I1280
I720
tp890
sS'ed_sheeran__sing__guitar_cover_XNU32tJNlg0'
p891
(F25.0
I1280
I720
tp892
sS'petite_meller__icebear_ft_joe_fleisch_8_5rRstn2Hc'
p893
(F25.0
I1280
I720
tp894
sS'snowmobile_sobriety_test__rocky_mountain_law_xUuHCP761JQ'
p895
(F29.97002997002997
I1280
I720
tp896
sS'longbilled_dowitcher_14IKc6__CDA'
p897
(F29.97002997002997
I1280
I720
tp898
sS'beach_ball_1_kids_0__aP8fbcskLI'
p899
(F30.0
I568
I320
tp900
sS'worlds_deadliest__kangaroo_kickboxing_4F3ZDqLIw7c'
p901
(F29.97002997002997
I1280
I720
tp902
sS'gopro_lunch_edit_ihAWXSurzrs'
p903
(F25.0
I1280
I720
tp904
sS'cats_vs_balloon_explosion__funny_compilation_S9iqjRTlJ50'
p905
(F23.976023976023978
I1280
I720
tp906
sS'gopro_elephant_lunch_break_cEWe42-HY_g'
p907
(F29.97002997002997
I1280
I720
tp908
sS'rescued_baby_bird_returned_to_parents_lbbuxF4mCiQ'
p909
(F30.0
I1280
I720
tp910
sS'periscope_cat_IHe5T9h5G50'
p911
(F25.0
I480
I360
tp912
sS'wild_sidetvalligator_snapping_turtles_WMYAkNuXnUE'
p913
(F29.97002997002997
I1280
I720
tp914
sS'meet_the_pedi_scope_a_periscope_for_your_bike_c5iGBzHxxTI'
p915
(F25.0
I480
I270
tp916
sS'totem_pole_I1YvpCHyxeg'
p917
(F23.976023976023978
I1280
I720
tp918
sS'how_to_take_care_of_a_macaw__pet_bird_1oZ5Zw_CuhI'
p919
(F23.976023976023978
I1280
I720
tp920
sS'kalle_kj_johansson_from_slednecks__snowmobile_river_stepup_YF-uuLFS6mU'
p921
(F29.97002997002997
I1280
I720
tp922
sS'kitten_and_flemish_rabbit_friends_playing_vb9Zh480KpA'
p923
(F29.97002997002997
I480
I360
tp924
sS'turtle_and_shark_a_beautiful_underwater_world_YmaOzduN2qQ'
p925
(F29.97002997002997
I1280
I720
tp926
sS'excision__night_shine_ft_luciana_bear_grillz_remix_A_VWBkCA-e0'
p927
(F24.0
I1280
I720
tp928
sS'long_billed_dowitcher_UNyzOu5nCnI'
p929
(F25.0
I480
I360
tp930
sS'abusing_a_fake_dog_in_public_social_experiment_yOaMYFmpuVo'
p931
(F30.0
I1280
I720
tp932
sS'ferrets_playing_in_snowmov_pJQbbPqPHVE'
p933
(F29.97002997002997
I1280
I720
tp934
sS'dowitcher_hunting_for_food_RBXL2mE9j0s'
p935
(F29.97002997002997
I1280
I720
tp936
sS'i_got_horse_riding_lessons_for_my_bday_heres_lesson_1_Y3EQIZqutlc'
p937
(F25.0
I1280
I720
tp938
sS'racing_my_macaw_parrot_at_kolimbithresparos_MnmZKNQZbwI'
p939
(F29.97002997002997
I1280
I720
tp940
sS'the_beach_ball_prom_at_nemoursalfred_i_dupont_hospital_for_children_dPG9W7bKBfE'
p941
(F29.97002997002997
I1280
I720
tp942
sS'snowmobile_races_vs_ferrari_458_and_f430_spider_in_drag_race__modball_rally_2015_H3Ragxvt-mU'
p943
(F25.0
I1280
I720
tp944
sS'snowmobile_caught_speeding__125_kph_in_a_50_kph_zone_bTwEb76FzXY'
p945
(F29.97002997002997
I1280
I720
tp946
sS'gopro_hd_hero__les_arcs_2011__part_3__lunch__snowpark_watch_in_hd_BjstRsVbeTI'
p947
(F25.0
I1280
I720
tp948
sS'the_totem_pole_an_intercultural_history_VV0rPn2F6lk'
p949
(F30.0
I480
I360
tp950
sS'dog_grooming_in_vancouver_wa_filmed_with_google_glass_Tdw95-syb54'
p951
(F30.0
I1280
I720
tp952
sS'flirty_donkey_and_a_zebra_19weoPgWiDw'
p953
(F30.0
I1280
I720
tp954
sS'polar_bears_and_dogs_playing_JE-Nyt4Bmi8'
p955
(F25.0
I640
I360
tp956
sS'unintelligible_empanada_truck_vs_dog__harmonizator_Hz7Oa8RpIpw'
p957
(F29.97002997002997
I480
I272
tp958
sS'waving_bear_plays_catch_with_sight_seeing_visitor_8K8HAFOVJg8'
p959
(F25.0
I640
I360
tp960
sS'minibike_with_snowmobile_motor_gbsB1UJopXc'
p961
(F29.97002997002997
I1280
I720
tp962
sS'northstar_tahoe_mountain_biking__through_google_glass__chase_cam_c5SPovk-eFs'
p963
(F30.0
I1280
I720
tp964
sS'spectacled_bear_waving_cE4dumT8nJQ'
p965
(F30.0
I480
I360
tp966
sS'cat_cant_handle_flower_-Z4jx5VMw8M'
p967
(F29.97002997002997
I360
I360
tp968
sS'shinemation__evil_totem_pole_animation_c1Z15EYi5L4'
p969
(F30.0
I1280
I720
tp970
sS'gopro_zip_line_1000_feet_new_zoo_adventure_park_nQwBJUjk61M'
p971
(F29.97002997002997
I1280
I720
tp972
sS'what_welshmen_do_when_theyre_bored_vGOGOxtN2lM'
p973
(F25.0
I320
I180
tp974
sS'gopro_arbys_fast_food_drive_thru_fast_motion_lunch_break_r12WnFppOm4'
p975
(F29.97002997002997
I1280
I720
tp976
sS'kangaroo_survival_in_australia__bbc_wildlife_4DZnx1mGyq4'
p977
(F25.0
I320
I180
tp978
sS'boondockers_12_snowmobile_film_teaser_xm1HCfcmLXw'
p979
(F29.97002997002997
I1280
I720
tp980
sS'clever_dog_plays_fetch_with_himself_vNvjtyUh2OM'
p981
(F30.0
I568
I320
tp982
sS'snowmobile_minibike_vs_super_mario_procart_ZKLaBisv6YE'
p983
(F29.97002997002997
I1280
I720
tp984
sS'google_glass_bike_ride_to_the_fire_tower_buffalo_mountain_tn_2aCnOT_UlE4'
p985
(F29.97002997002997
I640
I360
tp986
sS'jogging_gopro_hero3_black_edition_UceEtJ_qAX4'
p987
(F29.97002997002997
I432
I240
tp988
sS'cute_baby_pygmy_goat_plays_with_dogs_62rkHYv6tB0'
p989
(F29.97002997002997
I1280
I720
tp990
sS'gopro_revolving_timelapse_boxing_day_family_lunch_K2aRCcdXEaQ'
p991
(F29.97002997002997
I1280
I720
tp992
sS'gopro_mix_april_13__driving_gilera_smt_50__husky_tesms4_qLJHcUt8vd4'
p993
(F29.97002997002997
I1280
I720
tp994
sS'r3hab__revel_hq_beach_club_atlantic_city_through_google_glass_08112013_Pql5CxIumu8'
p995
(F30.0
I1280
I720
tp996
sS'miniature_horse_hola_hoop_free_jumping_1itscrunchtime1_YlvMxF8-H_k'
p997
(F29.97002997002997
I1280
I720
tp998
sS'cute_baby_zebra_coltcincinnati_zoo_ncMW41SLAl0'
p999
(F29.97002997002997
I1280
I720
tp1000
sS'dog_and_bird_play_and_fight_over_food_D914IPmDllA'
p1001
(F25.0
I1280
I720
tp1002
sS'freeskiing_basic_rail_tricks_ZVezlEH_ids'
p1003
(F29.97
I1280
I720
tp1004
sS'ever_wonder_what_dogs_do_while_waiting_for_you_CNuAnYo55y0'
p1005
(F25.0
I1280
I720
tp1006
sS'snow_tha_product__play_rEaYaa6Oljc'
p1007
(F15.0
I1280
I720
tp1008
sS'sports_balls_song_for_kids__pancake_manor_EZXI7l3eaOs'
p1009
(F23.976023976023978
I1280
I720
tp1010
sS'dog_jumping_into_a_pool_2_rxsad6gMkOI'
p1011
(F29.97002997002997
I1280
I720
tp1012
sS'99_red_balloons__played_with_red_balloons_aZND9dApFKU'
p1013
(F30.0
I1280
I720
tp1014
sS'70000_subscriber_thank_you_2bg_real_life_basketball_ep_5__game_of_horse_Qft3fOZjBgU'
p1015
(F29.97002997002997
I1280
I720
tp1016
sS'purdy_the_rabbit_playing_football_PqiTbB-BLOU'
p1017
(F25.0
I1280
I720
tp1018
sS'b2bill__peris_scope__a_modern_tribute_to_bill_evans__bexmorelliladd_2ApdURuwya0'
p1019
(F25.0
I1280
I720
tp1020
sS'jatt22_episode_1_keep_keith_or_keep_turtle_ZAIfmW4sfgY'
p1021
(F29.97002997002997
I1280
I720
tp1022
sS'sleeping_dogs_101_trailer_hd_720p_Ya-VGgmcl5M'
p1023
(F29.97002997002997
I1280
I720
tp1024
sS'games_for_children_67_year_olds_lesson_55_reaction_bounce_beachball_with_beachball_gikS_pr4bpM'
p1025
(F29.97002997002997
I640
I360
tp1026
sS'pet_the_lamb_playing_with_the_dogs_o8dLhySqMg4'
p1027
(F29.97002997002997
I406
I720
tp1028
sS'fence_jumping_dog_stopped_by_homemade_coyote_roller_ace_appetite_S1uCQdtJFIk'
p1029
(F30.0
I1280
I720
tp1030
sS'brian_feeding_a_massive_kangaroo_kD_yUKB85HM'
p1031
(F30.0
I1280
I720
tp1032
sS'sled_dog_adventures_ith_XxgR7JY'
p1033
(F29.97002997002997
I1280
I720
tp1034
sS'billy__betty_beachball__dance_8VOlwHYgGe8'
p1035
(F25.0
I1280
I720
tp1036
sS'interview_dominique_wilkins_on_larry_bird_the_dunk_contest_and_playing_against_mj_Qavnw2M2jPY'
p1037
(F23.976023976023978
I1280
I720
tp1038
sS'200pound_ripped_kangaroo_crushes_metal_DFCvPrzj4BU'
p1039
(F30.0
I1280
I720
tp1040
sS'gopro_bryan_bros__golf_trick_shots_part_2_Lw2ScBfcKpA'
p1041
(F29.97002997002997
I1280
I720
tp1042
sS'long_billed_dowitcher_TvCd4yHRVPw'
p1043
(F24.0
I1280
I720
tp1044
sS'rabbit_playing_fetch_BQezfT7ErCg'
p1045
(F29.666666666666668
I270
I360
tp1046
sS'george_bush_plays_goat_simulator_PR8VHHVbth0'
p1047
(F29.97002997002997
I1280
I720
tp1048
sS'foot_locker_x_james_harden__horse_with_harden_challenge_recap_d3n_FY559aQ'
p1049
(F29.97002997002997
I1280
I720
tp1050
sS'jumping_like_a_horse_anna_salander_Xyv_sLHlM0k'
p1051
(F25.0
I640
I360
tp1052
sS'dancing_to_zebra_playing_whos_behind_the_door_outro_at_jazzfest_new_orleans_2012_7jzjRYkXUqw'
p1053
(F23.976023976023978
I1280
I720
tp1054
sS'hello_kiniro_mosaic__the_totem_pole_song_MqS9YkNvaaQ'
p1055
(F29.97002997002997
I1280
I720
tp1056
sS'dog_with_a_blog__g_hannelius_sings_the_truck_stops_here_on_will_sing_for_food_truck_ExTyODfJOyo'
p1057
(F24.0
I1280
I720
tp1058
sS'truck__dog_reversing_t1TpHKepv34'
p1059
(F29.916666666666668
I480
I360
tp1060
sS'scu__milky_ice_bear_czqpoOlXJVs'
p1061
(F29.97002997002997
I1280
I720
tp1062
sS'2013_sti_gopro_driving__Z7kraJM6m0'
p1063
(F29.97002997002997
I960
I720
tp1064
sS'how_to_play_as_a_forwardwinger_in_soccer_2Da4_oCzVQ4'
p1065
(F25.0
I1280
I720
tp1066
sS'bear_grylls_adventure_urban_skiers_take_their_tricks_to_the_streets_wFIZ5ni3EHw'
p1067
(F25.0
I1280
I720
tp1068
sS'hero_cat_compilation__why_we_love_cats_LVoElgX2irI'
p1069
(F29.97002997002997
I1280
I720
tp1070
sS'snow_tha_product__play_music_video_TKZ8aKbTw1M'
p1071
(F24.038
I1280
I720
tp1072
sS'hairpainting_periscope_from_june_13_Il-E-J2jfy4'
p1073
(F30.0
I406
I720
tp1074
sS'an_ostrich_and_baby_giraffe_play_tag_rejDi1u31NI'
p1075
(F30.0
I480
I360
tp1076
sS'cat_wont_let_me_play_video_games_alone_SzqndXLTlFc'
p1077
(F29.97002997002997
I1280
I720
tp1078
sS'me_singing_fireflies_by_owl_city_FmlhIFWlSYI'
p1079
(F29.97002997002997
I1280
I720
tp1080
sS'water_torture_brown_bear_teases_dog_with_hosepipe_uUwNm9cCdaw'
p1081
(F25.0
I640
I360
tp1082
sS'crazy_dog_shower_u3DdQrejx10'
p1083
(F29.97002997002997
I1280
I720
tp1084
sS'macaw_bird_park_pensacola_72113_s3JM1r2cWeY'
p1085
(F29.97002997002997
I1280
I720
tp1086
sS'best_use_for_a_yoga_ball_according_to_my_goats_mu31o9zzHQs'
p1087
(F30.0
I1280
I720
tp1088
sS'rachel_blue_and_gold_macaw__teaching_a_parrot_to_flight_recall_XaNavXN8HnM'
p1089
(F24.0
I1280
I720
tp1090
sS'a_long_billed_dowitcher_QTvRamg_Hls'
p1091
(F30.0
I320
I240
tp1092
sS'goat_babies_in_pajamas_qfxUt9UM0nc'
p1093
(F29.97002997002997
I640
I360
tp1094
sS'bird_singing_dubstep_original_ZGhVXgMoz4g'
p1095
(F29.97002997002997
I960
I720
tp1096
sS'insanely_funny_snowmobile_crash_and_fail_complition_4vQNh9lxYgY'
p1097
(F29.97002997002997
I1280
I720
tp1098
sS'nasa_water_balloons_in_zero_g_high_quality_gTqLQO3L4Ko'
p1099
(F29.97002997002997
I528
I360
tp1100
sS'pretty_little_liars_aria_singing__noel_guitar_episode_9_oto9Al-Jlv4'
p1101
(F29.97002997002997
I480
I360
tp1102
sS'tr_cool_singing_and_playing_guitar_oo_HmCDirPNA-s'
p1103
(F25.0
I480
I360
tp1104
sS'baby_kangaroo_joey_jumps_in_pouch__currumbin_wildlife_sanctuary_04kXgo6j_0U'
p1105
(F25.0
I1270
I720
tp1106
sS'driving_around_with_gopro_3_in_mk6_gti_FaG9F32HXN8'
p1107
(F30.0
I1280
I720
tp1108
sS'tiny_kitten_plays_with_samoyed_dog_hlRBd4sLhEc'
p1109
(F30.0
I480
I360
tp1110
sS'dogs_playing_on_roanhead_beach_through_google_glass_0Y3WENeeJ40'
p1111
(F29.97002997002997
I1280
I720
tp1112
sS'kangaroo__cat_insane_ILRTLXfMAv4'
p1113
(F29.97002997002997
I1280
I720
tp1114
sS'filipino_guitar_trio_singing_cover_of_bruno_marss_grenade_in_tagaytay_resto_n4vqqfLzYCc'
p1115
(F29.97002997002997
I1280
I720
tp1116
sS'president_obama_plays_soccer_with_a_robot_O4ma1p4DK5A'
p1117
(F30.0
I1280
I720
tp1118
sS'snowmobile_cop_stop_1hvxv-A8xSY'
p1119
(F29.97002997002997
I1280
I720
tp1120
sS'how_to_properly_hold_a_snapping_turtle_jyS7dqNku1U'
p1121
(F29.97002997002997
I1280
I720
tp1122
sS'rick_santorum_scotus_just_opened_the_door_to_man_on_dog_sex_7l5eFs9jLv4'
p1123
(F29.97002997002997
I1280
I720
tp1124
sS'meerkat_or_periscope_part_1_cardonezone__sneak_preview_erDF0fUW7NQ'
p1125
(F30.0
I1280
I720
tp1126
sS'airsoft__ironman_totem_pole_pFEVDenFnzk'
p1127
(F29.97002997002997
I1280
I720
tp1128
sS'periscope_video_dog_in_the_sun_12_may_2015_UcaBSrUTgRM'
p1129
(F30.0
I1280
I720
tp1130
sS'jogging_at_botanical_garden_kl_featuring_gopro_hero3_xQ8TER0xQXU'
p1131
(F23.976023976023978
I1280
I720
tp1132
sS'taylor_swift_and_zac_efron_sing_a_duet__the_ellen_degeneres_showflv_PIIThKbJFQc'
p1133
(F30.0
I1280
I720
tp1134
sS'k9_classic_high_jumping_-vaUNnR9V_g'
p1135
(F30.0
I1280
I720
tp1136
sS'lego_chima_70230_ice_bear_tribe_pack__lego_speed_build_ucbDSEaCKtc'
p1137
(F25.0
I1280
I720
tp1138
sS'zebra_babies_playing_z05RSzJDUiM'
p1139
(F30.0
I640
I360
tp1140
sS'kids_playing_soccer_is_funny_QrFSNiJZoaQ'
p1141
(F29.97002997002997
I1280
I720
tp1142
sS'azula_mai_zuko__ty_lee_beachball_scene_hd_2lv2cqH-Vcw'
p1143
(F29.97002997002997
I1280
I720
tp1144
sS'gopro_dog_vs_mini_truck_FA8ba4GWCPI'
p1145
(F29.97002997002997
I1280
I720
tp1146
sS'little_tikes_big_dog_truck_DtfP730Xr34'
p1147
(F29.97002997002997
I1280
I720
tp1148
sS'how_fast_does_an_ostrich_runmov_1r-b8uY7C9E'
p1149
(F29.97002997002997
I540
I360
tp1150
sS'life_below_zero_sled_dogs_Nj1p02iE0t4'
p1151
(F29.97002997002997
I1280
I720
tp1152
sS'whipsnade_zoo__gopro_hero3_black_edition_2EyJokIBvZc'
p1153
(F29.97002997002997
I1280
I720
tp1154
sS'my_periscope_central_park_nyc_adventure_tfV6T06V61I'
p1155
(F29.97002997002997
I640
I360
tp1156
sS'swedish_man_scares_the_living_shit_out_of_an_attacking_bear_TtC14cpwwXg'
p1157
(F29.97002997002997
I1280
I720
tp1158
sS'ski_freestyle_the_coolest_tricks_1KM652DozPw'
p1159
(F25.0
I640
I360
tp1160
sS'you_should_get_a_second_cat_G4ECZR5WXNE'
p1161
(F23.976023976023978
I1280
I720
tp1162
sS'dogs_playing_soccerfootball_compilation__cfs_plFCDMQLGpw'
p1163
(F29.97002997002997
I1280
I720
tp1164
sS'cats_and_dogs_acting_like_humans__cute_animal_compilation_iZnnNek6kXw'
p1165
(F29.97002997002997
I1280
I720
tp1166
sS'how_to_improve_your_control1st_touch_in_football__learn_to_play_soccer__strskillschool_Ul9wCaNjrkM'
p1167
(F25.0
I1280
I720
tp1168
sS'swimming_tigers_at_australia_zoo_sMnK63ppBXU'
p1169
(F25.0
I1280
I720
tp1170
sS'baby_turtle_eating_a_raspberry_vb11rZgfihc'
p1171
(F29.97002997002997
I640
I360
tp1172
sS'kangaroo_on_steroids_bg2YX0i3WMU'
p1173
(F30.0
I204
I360
tp1174
sS'sheriff_man_traveled_to_arizona_to_have_sex_with_horse_t6IQaxkfRYo'
p1175
(F29.97002997002997
I1280
I720
tp1176
sS'tf2_how_to_play_cat_and_mouse_4_feat_sin_griefingfun_6VWvwZ3vBl8'
p1177
(F29.97002997002997
I1280
I720
tp1178
sS'gopro_chimp_smashes_drone_wPidiiaovL4'
p1179
(F23.976023976023978
I1280
I720
tp1180
sS'2_year_old_playing_bulls_on_parade_on_guitar_herothe_music_takes_over_bidW4aa-Z6M'
p1181
(F29.97002997002997
I480
I360
tp1182
sS'bullied_for_playing_guitar_until_they_found_out_who_he_was_playing_for_qH0xeBuaMq8'
p1183
(F25.0
I640
I360
tp1184
sS'how_to_fill_100_water_balloons_in_1_minute__today_Q0L5SAkgj98'
p1185
(F29.97002997002997
I1280
I720
tp1186
sS'denver_the_guilty_dog_gives_the_mccheesy_Aw_1V1yguvE'
p1187
(F29.947
I1280
I720
tp1188
sS'the_ice_bear_and_the_arctic_fox_dglKJ2woZ9w'
p1189
(F29.97002997002997
I640
I360
tp1190
sS'popping_water_balloons_on_our_trampoline__celebrating_5000_subscribers__bethany_g_-ry1NWTU3kU'
p1191
(F30.0
I1280
I720
tp1192
sS'baby_goat_plays_with_huge_pig_ac-Ei73hzv4'
p1193
(F30.0
I1280
I720
tp1194
sS'clutch_cargo__totem_pole_eskimo_FN0vMgE0t3o'
p1195
(F25.0
I352
I288
tp1196
sS'spaz_attacks_water_balloonsfull_version_bfRcx37Qp4U'
p1197
(F29.97002997002997
I640
I360
tp1198
sS'gruesome_moment_dead_zebra_sprays_leopard_with_blood_UF_i4UCvyB0'
p1199
(F25.0
I640
I360
tp1200
sS'5_horrifying_medical_procedures_w_sarah_drew__5facts_9uhnx93DIFY'
p1201
(F23.976023976023978
I1280
I720
tp1202
sS'dog_rmi_gaillard_yfUflij74P4'
p1203
(F25.0
I1280
I720
tp1204
sS'harry_irwin_playing_guitar__5sos__rowyso_sydney_GxOhY68NAlI'
p1205
(F29.97002997002997
I1280
I720
tp1206
sS'swimming_cat___My1K9kC-sQg'
p1207
(F25.0
I1280
I720
tp1208
sS'osf_51112_horse_show_dog_jumping_XI-nqt3KdL8'
p1209
(F29.97002997002997
I1280
I720
tp1210
sS'tiger_cub_playing_with_a_dog__ii_tigrinho_brincando_com_co_EdCVijVT7Wk'
p1211
(F30.0
I480
I360
tp1212
sS'south_african_zoo_visit_gopro_sjFSGqpKATY'
p1213
(F24.0
I1280
I720
tp1214
sS'arrogant_sheep_playing_soccer_lol_1WzDeZBgVdc'
p1215
(F25.0
I640
I360
tp1216
sS'longbilled_dowitcher_wwt_llanelli_Ucy3ESuCuc4'
p1217
(F25.0
I1280
I720
tp1218
sS'basketball_obstacle_course_challenge__wannaplay_with_shot_science_mHpH9BBS4j4'
p1219
(F29.97002997002997
I1280
I720
tp1220
sS'scarlet_macaw_1_LrrP6D9SWL8'
p1221
(F29.97002997002997
I1280
I720
tp1222
sS'dog_and_goat_playing_zsv5dJO2_MY'
p1223
(F30.0
I540
I360
tp1224
sS'totem_pole_march_eric_osterling_dbsIoJrooSU'
p1225
(F6.0
I1280
I720
tp1226
sS'floyd_mayweather_vs_chris_brown_and_snoop_on_basketball_court_deontay_wilder_in_house_QSZUy3U89qI'
p1227
(F30.0
I1280
I720
tp1228
sS'spoon_guitar_NCKTeRW3OhQ'
p1229
(F25.0
I480
I360
tp1230
sS'paul_pierce_plays_a_game_of_sprint_horse__basketball_city_nyc__pier_36_meLZYOdbIQ8'
p1231
(F23.976023976023978
I1280
I720
tp1232
sS'sheep_teaches_young_bull_to_head_butt_terceira_azores_D02F9HeSQbg'
p1233
(F30.0
I480
I360
tp1234
sS'truck_and_dog_tipping_hUxOi9ah0f8'
p1235
(F29.97002997002997
I1280
I720
tp1236
sS'nigel_pearson_goes_on_incredible_rant_at_ostrich_journalist_after_leicester_v_chelsea_GpAKLahuTzs'
p1237
(F29.97002997002997
I1280
I720
tp1238
sS'funny_cat_waving_teddy_bear_8qgYpPgx5w8'
p1239
(F29.0
I406
I720
tp1240
sS'feeding_the_bear_bear_waves_ZTnjks3XErM'
p1241
(F30.0
I1280
I720
tp1242
sS'dan_sartain_totem_pole_o6E7CwlZLW4'
p1243
(F30.0
I480
I272
tp1244
sS'how_to_play_soccer_soccer_positions__KoDgwznL8c'
p1245
(F30.0
I1280
I720
tp1246
sS'giant_kangaroo_stalks_australian_suburb_B272weCsBM0'
p1247
(F30.0
I1278
I720
tp1248
sS'how_to_beat_flappy_bird_best_method_gD-nzHy2DdU'
p1249
(F29.97002997002997
I1280
I720
tp1250
sS'dog_versus_deer_original_GnZSTkycovg'
p1251
(F29.97002997002997
I480
I360
tp1252
sS'nature__ravens__ravens_playing_in_snow__pbs_gjgpenWavO8'
p1253
(F30.0
I480
I360
tp1254
sS'native_american_totem_poles_JHGNnBqDCZc'
p1255
(F15.0
I256
I192
tp1256
sS'play_doh_peppa_pig_riding_bike_with_suzy_sheep_playing_in_playdough_muddy_puddles_peek_n_surprise_mNAE1-F_dKs'
p1257
(F29.97002997002997
I1280
I720
tp1258
sS'worlds_top_10_most_dangerous_dog_breeds_9HefsnsdyOo'
p1259
(F24.0
I1280
I720
tp1260
sS'lunch_loops__gopro_test_-YPiOoFMmZw'
p1261
(F29.97002997002997
I1280
I720
tp1262
sS'ice_bear__groove_zone_jGrAL-rPeMI'
p1263
(F25.0
I480
I360
tp1264
sS'best_basketball_vines_compilation_vol_17_fxXHsZhXysc'
p1265
(F29.97002997002997
I1280
I720
tp1266
sS'crowboarding_russian_roofsurfin_bird_caught_on_tape_3dWw9GLcOeA'
p1267
(F25.0
I480
I360
tp1268
sS'turtle_troubles_in_the_er__untold_stories_of_the_er_QHdzX_Gi6j8'
p1269
(F29.97002997002997
I1280
I720
tp1270
sS'alvino_rey_plays_st_louis_blues_with_stringy_the_talking_steel_guitar_jPd9cxqKCVg'
p1271
(F29.97002997002997
I480
I360
tp1272
sS'best_basketball_vines_compilation_vol_15_NXsAdetjvoY'
p1273
(F29.97002997002997
I1280
I720
tp1274
sS'game_of_horse_with_trick_shot_titus__studio_c_8X4Ysf5xtP4'
p1275
(F29.97002997002997
I1280
I720
tp1276
sS'how_to_play_snow_outside_by_dave_matthews_band_q0bBJ76he8g'
p1277
(F30.0
I480
I360
tp1278
sS'kamisama_kiss__kurama_ostrich_tengu__official_clip_Ui6t4zG7BWw'
p1279
(F23.976023976023978
I1280
I720
tp1280
sS'bird_plays_peekaboo__funny_talking_indian_ringneck_Bauj-buxRDc'
p1281
(F30.0
I480
I360
tp1282
sS'little_tikes_big_dog_truck_rideon__walker_commercial_cDFjuNThZxs'
p1283
(F23.976023976023978
I1280
I720
tp1284
sS'vw_r32_lunch_control_with_gopro__xG9X0ckHmE'
p1285
(F29.97002997002997
I1280
I720
tp1286
sS'goat_plays_the_guitar_C-Mk86F3rI0'
p1287
(F23.976023976023978
I1280
I720
tp1288
sS'arab_playing_with_tiger_cubs__funny_cubs_U8Zg4fut1ME'
p1289
(F24.0
I360
I360
tp1290
sS'the_kids_playing_in_the_snow_1I3ttj6SARI'
p1291
(F25.0
I540
I360
tp1292
sS'first_front_flip_y6-L1khMD7U'
p1293
(F29.97002997002997
I1280
I720
tp1294
sS'macaw_playing_with_dog_kMr07WddOGg'
p1295
(F25.39
I1280
I720
tp1296
sS'snowmobile_head_to_head_drag_race_vs_2_ferrari__modball_rally_2015_craziness_tKzN_tgv2X4'
p1297
(F25.0
I1280
I720
tp1298
sS'lego_city__police__60048__police_dog_unit__lego_3d_review_xAdKyQJrmzs'
p1299
(F25.0
I1280
I718
tp1300
sS'dog_wearing_google_glass_BV4xSJMccT0'
p1301
(F30.0
I640
I360
tp1302
sS'peris_scope_jazz_by_bill_evans_performed_by_the_moments_notice_jazz_trio_Z6h7F4e7fmo'
p1303
(F29.916666666666668
I480
I360
tp1304
sS'my_cute_dog_lila_playing_the_piano_and_singing__funny_animal_video_JSB84xWJk5M'
p1305
(F30.0
I1280
I720
tp1306
sS'minions_playing_soccer_C058wv48oms'
p1307
(F23.976023976023978
I430
I360
tp1308
sS'solvit_dog_ramps_for_trucks__suvs__adjustable_dog_ramp_review_ywnAtgazyZI'
p1309
(F29.97002997002997
I1280
I720
tp1310
sS'dancing_marching__jumping_choco_poodle_dog_iYDS8n_6I00'
p1311
(F30.0
I1280
I720
tp1312
sS'parrot_talking_laughing_and_playing_peekaboo_MNEIByUh_zw'
p1313
(F14.15
I400
I300
tp1314
sS'the_neediest_cat_in_the_world_GMeHd0Ee5Bw'
p1315
(F29.97002997002997
I1280
I720
tp1316
sS'little_red_wagon_corn_dogs_truck_ecep4DiD11g'
p1317
(F29.97002997002997
I1280
I720
tp1318
sS'how_to_cheat_at_playing_guitar_the_easiest_way_to_play_that_anyone_can_learn_in_seconds_VYiL8G6yooE'
p1319
(F29.97002997002997
I1280
I720
tp1320
sS'delta_chi_cycling__google_glass_lNNu0seCsQM'
p1321
(F29.97002997002997
I1280
I720
tp1322
sS'the_trashmen__surfin_bird__1963__ZThquH5t0ow'
p1323
(F30.0
I480
I360
tp1324
sS'riding_lincoln_avenue_bike_lane_with_google_glass_K0Dk2RZI-Jw'
p1325
(F29.97002997002997
I1280
I720
tp1326
sS'dogs_priceless_reaction_after_discovering_shadow_ACHrRMRSec0'
p1327
(F30.0
I1280
I720
tp1328
sS'goat_loves_playing_with_yoga_ball_BMG7xvBC7dY'
p1329
(F30.0
I320
I184
tp1330
sS'gopro_merry_christmas_lunch__25122014_VN8fLCq7640'
p1331
(F29.97002997002997
I1280
I714
tp1332
sS'dt_daily_nov_13_nissans_take_on_google_glass_track_your_pets_habits_helping_typhoon_victims_TINjU-TB1N4'
p1333
(F29.97002997002997
I1280
I720
tp1334
sS'zebraplay_AHjkhelJsNk'
p1335
(F15.0
I320
I240
tp1336
sS'sianna__cessna__3_year_old_girl_riding_163_hand_horse_qZRs-o-M65I'
p1337
(F29.97002997002997
I480
I360
tp1338
sS'messing_around_with_my_dog_throughglass_googleglass_german_shepherd_ecs-M7HIyd4'
p1339
(F29.916666666666668
I1280
I720
tp1340
sS'goprolunch_break_NEG3PxmtFCI'
p1341
(F29.97002997002997
I1280
I720
tp1342
sS'gopro_driving_edit__the_cat_and_fiddle_road_yR9KfNosY5s'
p1343
(F29.97002997002997
I1280
I720
tp1344
sS'teenage_mutant_ninja_turtles_turtle_robots_and_splinter_fight_shredder_foot_clan_cyclops_imaginext_iG3d6sDnQq0'
p1345
(F23.976023976023978
I1280
I720
tp1346
sS'donaldsonville_to_new_orleans_audubon_zoo_gopro_time_lapse_X3akledw1fY'
p1347
(F29.97002997002997
I1280
I720
tp1348
sS'google_glass_bike_crash_SCcFM4jAkS4'
p1349
(F30.0
I1280
I720
tp1350
sS'me_singing_teardrops_on_my_guitar_by_taylor_swift_tARyQPx8hu4'
p1351
(F29.97002997002997
I480
I360
tp1352
sS'i_love_bird_longbilled__dowitcher_h8PC79caIS0'
p1353
(F29.97002997002997
I1280
I720
tp1354
sS'crazy_kangaroo_fight_knock_out_and_put_to_sleep_wwXINuTp1vg'
p1355
(F25.0
I480
I276
tp1356
sS'ostrich_taming_original_C4J1yOGJ9wI'
p1357
(F30.0
I1280
I720
tp1358
sS'ups_driver_kicks_dog_cctv_shows_delivery_man_kicking_dog_and_fighting_owner__tomonews_AifPSC8DndY'
p1359
(F29.97002997002997
I1280
I720
tp1360
sS'balloon_scares_the_crap_out_of_cat_y4RcDfdL9Uw'
p1361
(F29.916666666666668
I1280
I720
tp1362
sS'playing_tug_of_war_with_love_birds_5PPvPYz3MbE'
p1363
(F29.97002997002997
I480
I360
tp1364
sS'how_to_build_a_dog_sled_qcEa7wqqDyg'
p1365
(F29.97002997002997
I1280
I720
tp1366
sS'diy_gopro_chest_mount__time_lapsed_jog_at_bukit_kiara_hills_Pdk2X2K3nGA'
p1367
(F30.0
I1280
I720
tp1368
sS'cute_white_rabbit_playing_with_balloon_and_rabbit_scared_when_balloon_blows_up_l1DXPKjE2Zw'
p1369
(F24.0
I320
I240
tp1370
sS'bunny_rabbit_plays_with_golden_retriever_dhWpq__G-6o'
p1371
(F30.0
I480
I360
tp1372
sS'gopro_hero_jogging_2T0AAU0Xak0'
p1373
(F25.0
I1280
I720
tp1374
sS'pitbull_dog_jumping_competition_escalada_vertical_pitbull_dog_7gtKMsiqK9Q'
p1375
(F29.97002997002997
I1280
I720
tp1376
sS'wfr_promo_gopro_jogging_seward_park_V8iMR6DHuzc'
p1377
(F29.97002997002997
I1280
I720
tp1378
sS'showing_business_clients__periscope_NmqsgJ0Yahs'
p1379
(F30.0
I1074
I720
tp1380
sS'lets_play_soccer__lets_play_baseball__english_song_for_kids__lets_sing_listen_and_repeat_uYzwtiymDN4'
p1381
(F24.0
I1280
I720
tp1382
sS'periscope_is_the_big_winner_in_mayweatherpacquiao_HVaHZ4qKv04'
p1383
(F29.97002997002997
I1280
I720
tp1384
sS'tiger_and_dog_are_best_friends_smYZ7nJp5wg'
p1385
(F25.0
I640
I352
tp1386
sS'timo_maszewski__friends__freestyle_skiing__val_thorens_snowpark__young_skier_4XjRyc-fy9o'
p1387
(F25.0
I1280
I720
tp1388
sS'capital_cities__kangaroo_court_official_CJinWua98NA'
p1389
(F23.976023976023978
I1280
I720
tp1390
sS'frankie_goes_to_hollywood__relax_go_periscopedj_skiddle_remix_wdmvP65t3AU'
p1391
(F29.917
I1280
I720
tp1392
sS'cat_playing_with_a_bird_really_very_cool_QFyI1cjsuGU'
p1393
(F25.0
I480
I360
tp1394
sS'welcome_to_my_ostrich_lady__a_comedy_parody_by_deven_green_kH0DsUSwsFc'
p1395
(F29.97002997002997
I1280
I720
tp1396
sS'let_me_out__simons_cat_HDzkaJOT_KI'
p1397
(F25.0
I1280
I720
tp1398
sS'the_bear_went_over_the_mountain__nursery_rhyme__by_littlebabybum_hd_version_QAW2GSwUnNo'
p1399
(F29.97002997002997
I1280
I720
tp1400
sS'teddy_bear_teddy_bear_turn_around__3d_animation_english_nursery_rhyme_song_for_children_7X0Q4F--g0s'
p1401
(F29.97002997002997
I1280
I720
tp1402
sS'talking_kitty_cat__sylvester_goes_to_the_vet_yR6ejO1NO10'
p1403
(F29.97002997002997
I1280
I720
tp1404
sS'kinky_talk_with_destorm__happy_hour_with_taryn__episode_7_t0WYJVVpiQo'
p1405
(F29.97002997002997
I1280
I720
tp1406
sS'gopro_hero_3_black_edition_squirrel_eat_our_lunch_hyde_park_vHEasy7-PPg'
p1407
(F29.97002997002997
I1280
I720
tp1408
sS'tucker_piano_2_caught_on_camera_AvqJ4iT3CwE'
p1409
(F29.97002997002997
I960
I720
tp1410
sS'baby_zebra_playing_with_birds_D1Rv-M5EOl4'
p1411
(F29.97002997002997
I1280
I720
tp1412
sS'scrotum_totem_pole_by_noemotion_directed__produced_by_edk_07jIxPatag4'
p1413
(F29.97002997002997
I1280
I720
tp1414
sS'zamba_and_the_zebra_playing_in_the_paddock_R8FnANe2wDw'
p1415
(F25.0
I320
I240
tp1416
sS'dogs_playing_with_babies_compilation__gf6ZnzjC7w'
p1417
(F29.97002997002997
I1280
I720
tp1418
sS'awww_baby_goat_desperate_to_headbutt_a_horse_vOJ32F4v-04'
p1419
(F29.97002997002997
I568
I320
tp1420
sS'breathe_the_most_beautiful_snowmobile_video_3QGiMOlqfIM'
p1421
(F14.985014985014985
I320
I240
tp1422
sS'crazy_baby_goat_back_flips_off_other_goats_AWvefaN8USk'
p1423
(F25.0
I400
I288
tp1424
sS'singing_and_playing_guitar_death_metal_lesson_N7Ze3vhsehg'
p1425
(F30.0
I1280
I720
tp1426
sS'baby_sheep_plays_on_bed__funny_JLAc1f5OVps'
p1427
(F30.0
I1280
I720
tp1428
sS'digging_sliding_cute_netherland_dwarf_bunny_rabbit_play_on_the_bed_hIRSHAGqhwM'
p1429
(F29.97002997002997
I1280
I720
tp1430
sS'claytronics_shape_transformation_bear_waving_axcs0vpEpaE'
p1431
(F29.962
I480
I360
tp1432
sS'dog_challenge_jkB93kVoSyg'
p1433
(F29.97002997002997
I1280
I720
tp1434
sS'periscope_faster_than_meerkat_ceo__cnbc_rLpS0_d0OR8'
p1435
(F30.0
I1280
I720
tp1436
sS'thug_life__fastest_turtle_in_the_world_qt4JPyKfSSg'
p1437
(F29.97002997002997
I1280
I720
tp1438
sS'shaving_cream_smack_prank_periscope_erikmeldik_sitIqtFlWTo'
p1439
(F29.97002997002997
I1280
I720
tp1440
sS'zebra_finch_babies_playing_and_eating_seed_hd_KLBm-fJe6lg'
p1441
(F30.0
I1280
I720
tp1442
sS'love_bird_playing_with_ball_5KdIY8benY4'
p1443
(F30.0
I1280
I720
tp1444
sS'trippy_turtle__wet_Z2nn69Jnd8E'
p1445
(F29.97002997002997
I1280
I720
tp1446
sS'april_showers__simons_cat_0kgTfbL21G8'
p1447
(F25.0
I1280
I720
tp1448
sS'meet_23_of_mah_cats__-PK_mWRS4PA'
p1449
(F9.901
I406
I720
tp1450
sS'gopro_cam_jog_an_burning_fat_bSyjAO2iamw'
p1451
(F30.0
I1280
I720
tp1452
sS'japanese_kids_playing_tons_of_balls_and_balloons_11q28oh-r4o'
p1453
(F25.0
I480
I360
tp1454
sS'talking_kitty_cat__scratch_fever_5ol5kAhO2BI'
p1455
(F29.97002997002997
I1280
I720
tp1456
sS'polar_bear_vs_walrus_Ob_oD1IsYbE'
p1457
(F30.0
I320
I240
tp1458
sS'gopro_driving_test_7RAuQjfSIWk'
p1459
(F29.833333333333332
I640
I360
tp1460
sS'periscope_of_bernie_sanders_town_hall_part_3_YWjzt2l0Ufs'
p1461
(F30.0
I540
I720
tp1462
sS'gopro_driving_sideways_eYRRShztxEA'
p1463
(F29.97002997002997
I1280
I720
tp1464
sS'google_glass_at_the_beach_tCioHM4nkxA'
p1465
(F30.0
I1280
I720
tp1466
sS'watch_this_man_save_a_sea_turtles_life_by_giving_it_cpr_on_nbcs_the_island_70MxbBjaN4U'
p1467
(F29.97002997002997
I1280
I720
tp1468
sS'teddy_bear_teddy_bear__mother_goose_club_playhouse_kids_song_xVa3PYY0hVs'
p1469
(F24.0
I1280
I720
tp1470
sS'baby_goat_and_beagle_puppy_playing_Oci6WDk2KjI'
p1471
(F28.64
I480
I360
tp1472
sS'skiing_tricks_and_jumps_compilation__nick_martini_simon_dumont_thomas_dolplads_bobby_brown_aGaQBHEUzLU'
p1473
(F29.97002997002997
I1280
I720
tp1474
sS'human_planet__arctic_greenland_sled_dogs__premieres_sunday_20_march_abc1_QeDv3hVcc8A'
p1475
(F25.0
I640
I360
tp1476
sS'how_to_play_soccer__dribbling_moves_in_soccer_for_beginners_dQ1Ng5QfJ3o'
p1477
(F29.833333333333332
I480
I360
tp1478
sS'cat_wearing_google_glasses__google_glass_parody__petody_bnA_SOcrQp0'
p1479
(F24.0
I1280
I720
tp1480
sS'baby_lion__tiger_playing_t9je3P-_NmU'
p1481
(F29.97002997002997
I1280
I720
tp1482
sS'tchabadjo___gipsy_jazz_and_tap_dance_double_bass_guitar_singing_ALtDtYnWFuo'
p1483
(F29.97002997002997
I1280
I720
tp1484
sS'google_glass_biking_with_quad_copter_vision_iLyuffJz_5k'
p1485
(F29.97002997002997
I1280
I720
tp1486
sS'kid_hurt_by_huge_beach_ball__owned_xd_six_SHtimZ5onIU'
p1487
(F15.0
I320
I240
tp1488
sS'knex_week_day_7__angry_birds_space_ice_bird_break_down_vs_robocombo_r24nPsJ32NA'
p1489
(F23.976023976023978
I1280
I720
tp1490
sS'how_to_become_a_pro_soccer_player_-AMixgcQpQE'
p1491
(F25.0
I1280
I720
tp1492
sS'meerkat_and_periscope_say_no_to_nudes_thedesk_3whhGAXCo34'
p1493
(F23.976023976023978
I1280
I720
tp1494
sS'nelly_furtado_im_like_a_bird_lyrics_2vHH2pOzuMA'
p1495
(F30.0
I320
I240
tp1496
sS'monkey_wants_gopro__london_zoo_53ysH37U48U'
p1497
(F25.0
I1280
I720
tp1498
sS'the_rock_sings_to_vickie_guerrero_GWW2QY-ybr4'
p1499
(F29.97002997002997
I1280
I720
tp1500
sS'horse_play_jack_russell_rides_miniature_horse_H3wijW2mNHM'
p1501
(F29.97002997002997
I1280
I720
tp1502
sS'electric_zoo_day_3_gopro_0EKdfbDnt2Y'
p1503
(F30.0
I1280
I720
tp1504
sS'macaw_parrot_showers_in_a_sink_DpjwS0daWrM'
p1505
(F29.97002997002997
I640
I360
tp1506
sS'chvres_en_quilibre__goats_balancing_on_a_flexible_steel_ribbon_58-atNakMWw'
p1507
(F29.97002997002997
I1280
I720
tp1508
sS'bears_waving_compilation_DHiGqRbI5uU'
p1509
(F29.97002997002997
I640
I360
tp1510
sS'dog_fetch_fails_ltS0G7KA7XQ'
p1511
(F29.97002997002997
I1280
I720
tp1512
sS'dog_with_a_blog__the_truck_stops_here_commercial_PkjwxswAQPU'
p1513
(F29.97002997002997
I1280
I720
tp1514
sS'bear_fight_at_brook_falls_then_bear_jumps_off_waterfall__live_camera_highlight_gXsiqoMBepc'
p1515
(F29.97002997002997
I1280
I720
tp1516
sS'four_hands_guitar_i4BYMvVvMg0'
p1517
(F14.985014985014985
I320
I240
tp1518
sS'yolanda_charles_masterclass_singing_and_playing_bass_guitar_EEdJP6ToAJ4'
p1519
(F25.0
I1280
I720
tp1520
sS'tsavo_safari__leopard_kills_ostrich_XIxnBEv3EFg'
p1521
(F25.0
I1280
I720
tp1522
sS'longbilled_dowitcher_hunting_in_the_surf_ao_nW8H7eCM'
p1523
(F29.97002997002997
I1280
I720
tp1524
sS'gopro_hero4_the_adventure_of_life_in_4k_wTcNtgA6gHs'
p1525
(F29.97002997002997
I1280
I720
tp1526
sS'gopro_hero3_driving_home_from_work_CGn7KmUiozk'
p1527
(F25.0
I1280
I720
tp1528
sS'bird_trippin_e4ssbhWzTOU'
p1529
(F25.0
I1280
I720
tp1530
sS'man_vs_kangaroo_round_2_Uca_CKuTHQc'
p1531
(F29.641
I480
I360
tp1532
sS'visions_of_seoul_korea__walking_jogging_and_biking_wa_gopro_chest_mount_gopro_2_test_dmlyA7jJSO0'
p1533
(F29.97002997002997
I1280
I720
tp1534
sS'watch_how_this_dog_reacts_when_he_sees_a_ball_pit_for_the_first_time_lWWqfWr9xJE'
p1535
(F24.0
I1280
I720
tp1536
sS'amazing_dogbird_video_that_will_make_your_day_ef8BMF87EgM'
p1537
(F25.0
I400
I224
tp1538
sS'her_story__woman_viva_seifert_playing_guitar_singing_two_sisters_dreadful_wind_and_rain_lPSw-n3Ejjk'
p1539
(F29.97002997002997
I1280
I720
tp1540
sS'cute_dog_playing_virtual_soccer_vRi0m329iL4'
p1541
(F30.0
I480
I360
tp1542
sS'bear_attack_man_is_trying_to_run_away_from_attacking_bear_gopro_eK0pO79YkvY'
p1543
(F29.97002997002997
I1280
I720
tp1544
sS'google_glass_walking_my_dog_bwm-Tf5JLC8'
p1545
(F23.976023976023978
I1280
I720
tp1546
sS'sheep_and_elephant_are_best_friends_CZES1UYO-SI'
p1547
(F30.0
I1280
I720
tp1548
sS'big_cat_enthusiast_owns_six_tigers_and_two_lions_DrRqkW2jkF0'
p1549
(F25.0
I1280
I720
tp1550
sS'screeching_weasel_totem_pole_eqTPWSFfB6M'
p1551
(F29.97002997002997
I480
I360
tp1552
sS'massive_bear_waves_to_woman_catches_lunch___abc_news_smy-F6Qm5wI'
p1553
(F29.97002997002997
I1280
I720
tp1554
sS'who_knew_dogs_could_fly_qRkHhIeovsU'
p1555
(F24.0
I568
I320
tp1556
sS'rare_adult_turtle_unboxing_JcU1Kcf51OE'
p1557
(F30.0
I1280
I720
tp1558
sS'turtle_epically_eating_tomato_GvH4odJa8co'
p1559
(F30.0
I480
I360
tp1560
sS'man_on_the_street__the_periscope_Bk7VnTq68sk'
p1561
(F24.0
I1280
I720
tp1562
sS'man_plays_with_tiger_caught_on_tape__zookeeper_swims_with_bengal_tiger_znhByutkne0'
p1563
(F29.97002997002997
I1280
I720
tp1564
sS'macaw_bird_follows_owner__real_life_assassins_creed_mYNx1wuHR3I'
p1565
(F29.97002997002997
I1280
I720
tp1566
sS'zebra_playing_tummy_sticks_0SuThmD9EcI'
p1567
(F29.97002997002997
I270
I360
tp1568
sS'hero_the_hero_dog_gets_adopted_from_animal_haven_5HYJweVxxnA'
p1569
(F29.97002997002997
I1280
I720
tp1570
sS'mutant_giant_spider_dog_sa_wardega_YoB8t0B4jx4'
p1571
(F25.0
I1280
I720
tp1572
sS'longbilled_dowitcher_at_bjden_nor_DuCLb6QikIw'
p1573
(F30.0
I1280
I720
tp1574
sS'54_dowitcher_trail_land_for_sale_bald_head_island_nc_real_estate_4GoAVY6breU'
p1575
(F29.97002997002997
I640
I360
tp1576
sS'cat_scared_of_mario_jump___TbUGwA_woCE'
p1577
(F25.0
I640
I360
tp1578
sS'smart_waving_bear_REXA6AhagKE'
p1579
(F29.0
I320
I240
tp1580
sS'periscope_first_look_at_twitters_livestream_app_6mp4RkxvE0g'
p1581
(F29.97002997002997
I1280
I720
tp1582
sS'boss_bear_waving_bear_makes_an_amazing_catch_Kep72MghSxI'
p1583
(F30.0
I1280
I720
tp1584
sS'go_periscope__crush_me_full_hd_P1JHny7E-B0'
p1585
(F29.97002997002997
I1280
I720
tp1586
sS'funny_siberian_husky_video__siberian_husky_dogs_playing_mDnE-PbitNw'
p1587
(F29.97002997002997
I1280
I720
tp1588
sS'dog_sled_training_wyl_g_IY6fQ'
p1589
(F29.833333333333332
I1280
I720
tp1590
sS'red_pandas_play_in_the_snow_r-pUNHU2hjs'
p1591
(F29.97002997002997
I640
I360
tp1592
sS'epic_dog_fetch_fail_compilation__6Y1bpCm7nY'
p1593
(F29.97002997002997
I1280
I720
tp1594
sS'my_rabbit_got_shot_playing_dead_TqIsQRtszAY'
p1595
(F29.97002997002997
I1280
I720
tp1596
sS'sheep_playing_fetch_with_dogs_9-P_vF1voLY'
p1597
(F29.97002997002997
I1280
I720
tp1598
sS'big_cats_like_boxes_too_J11uu8L8FTY'
p1599
(F29.97002997002997
I1280
I720
tp1600
sS'google_glass_for_dogs_Oz8BugUnHFY'
p1601
(F30.0
I1280
I720
tp1602
sS'play_soccer_like_a_girl_Uci4LTNOMkw'
p1603
(F23.976023976023978
I1280
I720
tp1604
sS'sweet_manny_pacquiao_plays_guitar__sings_with_wife_jinkee_QhTOLr20H7I'
p1605
(F29.97002997002997
I1280
I720
tp1606
sS'tiger_cubs_play_in_the_snow_at_the_st_louis_zoo_gBIOnmPXAYQ'
p1607
(F29.97002997002997
I500
I280
tp1608
sS'my_cat_rabbit_and_dog_playing_together_part_1_AVckxLm5VrQ'
p1609
(F30.0
I1270
I720
tp1610
sS'the_best_jumping_dog_youll_ever_find_ArqtEj_FD9Y'
p1611
(F25.0
I450
I360
tp1612
sS'shortbilled_dowitcher_in_toronto_bOeBCUeaFEE'
p1613
(F29.97002997002997
I1280
I720
tp1614
sS'baby_ostrich_dance_party_A84DSgU6mQY'
p1615
(F29.97
I1280
I720
tp1616
sS'klay_thompson_plays_basketball_with_strangers_0Ar0muvq5Qc'
p1617
(F23.976023976023978
I1280
I720
tp1618
sS'giant_rabbit_playing_with_dog_7xAToHK2nMk'
p1619
(F29.97002997002997
I480
I360
tp1620
sS'magic_kingdom_railway_ride_from_main_street_usa_to_frontierland_RoqeOGq_lIg'
p1621
(F23.976023976023978
I202
I360
tp1622
sS'aqua_something_you_know_whatever_sneak_peek_totem_pole_FnhaRKtE3LY'
p1623
(F29.97002997002997
I640
I360
tp1624
sS'rescued_tigers_swim_for_the_first_time_wxu1L4SAwZM'
p1625
(F23.976023976023978
I1280
I720
tp1626
sS'meet_roger_the_giant_kickboxing_kangaroo_mqzwtmgx2OQ'
p1627
(F29.97002997002997
I1280
I720
tp1628
sS'18_sled_dogs_over_20_mph_chN7WdlZ3JY'
p1629
(F15.0
I320
I240
tp1630
sS'crunch__free_jumping_2__new__miniature_horse_champion_mFImjWUvgQI'
p1631
(F29.97002997002997
I1280
I720
tp1632
sS'nba_funniest_bloopers_of_2015__funny_basketball_fails_7_jCXcT8v9KAs'
p1633
(F25.0
I1280
I720
tp1634
sS'saving_a_macaw_from_piranha_in_the_amazon_dCe5xbum29g'
p1635
(F29.97002997002997
I1280
I720
tp1636
sS'audi_rs3_340bhp_pov_test_drive_gopro_SKsO5jmEdeM'
p1637
(F23.976023976023978
I1280
I720
tp1638
sS'top_10_strongest_dogs_in_the_world_oH_hk2bjfDY'
p1639
(F30.0
I1280
I720
tp1640
sS'annoying_orange_lets_play__goat_simulator_2_PhGK9QxxXaw'
p1641
(F23.976023976023978
I1280
I720
tp1642
sS'gopro_hd_hero_2_jogging_with_headstrap_uC-F9-9C1UE'
p1643
(F29.97002997002997
I1280
I720
tp1644
sS'polar_bear_attacks_sleeping_walruses_E7xTV_UUEXI'
p1645
(F29.97002997002997
I540
I360
tp1646
sS'disney_periscopemain_street_usa_mOYpkeOiK6c'
p1647
(F23.881
I204
I360
tp1648
sS'asian_girls_playing_guitar_singing_try_by_pink__cover_oNc7-YoX-s4'
p1649
(F24.0
I1280
I720
tp1650
sS'macey__lissie_sheep_playing_w_ball__running_wC1dfQXxYd8'
p1651
(F45.083333333333336
I480
I360
tp1652
sS'google_glass_walk_thru_venice_muscle_beach_throughglass_KuWpNO7TOmk'
p1653
(F30.0
I1280
I720
tp1654
sS'dog_jumping_rope_the_double_dutch_f3rIqNRtxIw'
p1655
(F29.97002997002997
I400
I224
tp1656
sS'my_dog_jumping_high_2_b67dMVyHj7E'
p1657
(F29.833333333333332
I960
I720
tp1658
sS'french_bulldog_jogging_gopro_hero_3_10uAE4meCmg'
p1659
(F25.0
I1280
I720
tp1660
sS'north_korea_children_playing_the_guitar_creepy_as_hell_gSedE5sU3uc'
p1661
(F25.0
I320
I240
tp1662
sS'chubby_bunny_challenge_with_my_dog_rusty_qIJwfmD9dXs'
p1663
(F29.97002997002997
I1280
I720
tp1664
sS'facts_about_service_dog_id_cards__vests_legal_or_illegal_3hljCmYdcZY'
p1665
(F25.0
I640
I360
tp1666
sS'fishing_cat_underwater_gopro__cincinnati_zoo_mLkzM_1fQ9I'
p1667
(F29.97002997002997
I1280
I720
tp1668
sS'newborn_horse_syndrome_suggests_links_to_childhood_autism_mKbwOv7eQKc'
p1669
(F24.0
I1280
I720
tp1670
sS'running_with_a_gopro_in_my_head_dZs557Esv_k'
p1671
(F25.0
I1280
I720
tp1672
sS'biking_with_google_glass_in_a_rainy_day_Dg2zeMiShmM'
p1673
(F30.0
I1280
I720
tp1674
sS'gopro_hd_cycling_lunch_ride_criterium_on_my_cervelo_bnmxucsFw8Y'
p1675
(F29.97002997002997
I1280
I720
tp1676
sS'morgan_freeman_chats_with_jimmy_while_sucking_helium_FRKVQcbIByo'
p1677
(F29.97002997002997
I1280
I720
tp1678
sS'my_blue__gold_macaw_JC34HBkRycE'
p1679
(F30.0
I1280
I720
tp1680
sS'periscope_feeding_cute_cats_k71PoVXD_rY'
p1681
(F23.652
I202
I360
tp1682
sS'waving_bears_in_seattle_game_farm_EI1IWOLl5YU'
p1683
(F30.0
I1280
I720
tp1684
sS'x_games_gopro_snowmobile_best_trick_goes_wrong_vluMPbATE28'
p1685
(F29.97002997002997
I1280
I718
tp1686
sS'gopro_walking_spanish_narcissus_by_name_g_LTw_ezpqI'
p1687
(F29.97002997002997
I1280
I720
tp1688
sS'end_of_jogging_workout_9_jan_2015_9_am_5_celsius_gopro_hero_2_Kma1HIh1wXU'
p1689
(F29.97002997002997
I1280
I720
tp1690
sS'bird_and_dr_j_amazing_fight_u4oF34p3-rQ'
p1691
(F29.916666666666668
I400
I300
tp1692
sS'las_vegas__carmines_restaurant__google_glass__through_glass__newport_beach_photographer_9tGRAeTSopk'
p1693
(F30.0
I640
I360
tp1694
sS'balloons_for_children__kids_play_balloons_fun_fun_b_chi_bong_bng_gyYo3oIonzk'
p1695
(F29.97002997002997
I1280
I720
tp1696
sS'dogsled__dos_equis_beer__tv_commercial_ads_3SNQhv5lW8U'
p1697
(F24.0
I1280
I720
tp1698
sS'ostrich_attack_Rb7Qdd5vMRw'
p1699
(F29.97002997002997
I1280
I720
tp1700
sS'titanium__playing_guitar_and_singing_by_sunn__awesome__r79KH1TuGMA'
p1701
(F30.0
I640
I360
tp1702
sS'israeli_soldier_decides_to_take_a_guitar_and_singing_im_yours_KzM6YecTF7k'
p1703
(F29.75
I400
I220
tp1704
sS'white_kid_sing_the_blues_in_guitar_shop_like_its_nobodys_business_F1pwnb0NpQw'
p1705
(F25.0
I450
I360
tp1706
sS'509_films__volume_9_snowmobile_teaser_official_q-9FA_-S__E'
p1707
(F23.976023976023978
I1280
I720
tp1708
sS'dog_saves_baby_dolphin_on_criccieth_beach_z4Xb29huo6w'
p1709
(F29.97002997002997
I1280
I720
tp1710
sS'small_turtle_attacks_a_fluffy_cat_kFP6kzZJGOs'
p1711
(F29.97002997002997
I640
I360
tp1712
sS'worlds_deadliest__grizzly_bear_attacks_prey_K-Tfq6dARGk'
p1713
(F29.97002997002997
I1280
I720
tp1714
sS'goat_kids_playing_king_of_the_mountain_qxr0s8qrs4c'
p1715
(F30.0
I480
I360
tp1716
sS'bear_sits_next_to_guy_rbE53XUtVw0'
p1717
(F15.0
I960
I720
tp1718
sS'man_sentenced_to_10_years_after_dragging_dog_behind_truck_S3ZaX8NSNvw'
p1719
(F30.0
I640
I360
tp1720
sS'cage_world_parrot_store__macaw_amazon_african_grey_parrot_cages__toys_1o645WhntJI'
p1721
(F29.97002997002997
I1280
I720
tp1722
sS'funny_ostrich_Ko2tyyThtGQ'
p1723
(F25.0
I1280
I720
tp1724
sS'gopro_snowmobile_down_rapids_in_iceland_8MPsTogn08w'
p1725
(F29.97002997002997
I1280
I720
tp1726
sS'lunch_time_for_geese_via_gopro_Rf-MD8jclmg'
p1727
(F29.97002997002997
I1280
I720
tp1728
sS'virtual_home_tour__1018_dowitcher__viera_fl__374982_-CxKvLl0148'
p1729
(F29.97002997002997
I1280
I720
tp1730
sS'ed_sheeran_signing_and_playing_fans_guitar_on_stage_F77KEgbImfw'
p1731
(F30.0
I1280
I720
tp1732
sS'florence__the_machine__dog_days_are_over_lyrics_ny4deVFsYuo'
p1733
(F25.0
I320
I240
tp1734
sS'world_record_basketball_shot_1265m_415_ft__how_ridiculous_H9SF2YIKRY8'
p1735
(F25.0
I1280
I720
tp1736
sS'macaw__cant_wait_to_shower_MdXmjpbGW-Q'
p1737
(F30.0
I1280
I720
tp1738
sS'horse_jumping_upto_160_classic_crusader_and_classic_goldrush_NcAOJmXwbaE'
p1739
(F24.0
I1280
I720
tp1740
sS'cheetah_vs_ostrich_video_4kvev_A81NA'
p1741
(F25.0
I320
I240
tp1742
sS'subaru_dog_tested_whats_the_fuss_about_x698U8vd_WE'
p1743
(F23.976023976023978
I1280
I720
tp1744
sS'basketball_wives_la__season_4_super_trailer__premieres_sunday_july_12__98c__vh1_h8W29W1i9PA'
p1745
(F29.97002997002997
I1280
I720
tp1746
sS'hilarious_dog_talking_at_the_start_of_dog_sled_race_FYvBLiFKipY'
p1747
(F30.0
I1280
I720
tp1748
sS'dog_with_a_blog_the_truck_stops_here_commercial__g_hannelius_singing_PWM_xblGXEs'
p1749
(F24.0
I1280
I720
tp1750
sS'puppy_plays_with_rabbit_mr6kItIhzxU'
p1751
(F30.0
I568
I320
tp1752
sS'bears_in_the_modern_world__electric_deer_pdM9YOYrcbs'
p1753
(F29.97002997002997
I1280
I720
tp1754
sS'ally__day_dog_teaching_baby_to_jump_YD9SEtaVKgA'
p1755
(F24.0
I406
I720
tp1756
sS'one_piece_treasure_cruise___yellow_princess_turtle_confirmed_L6Qxvbba5nE'
p1757
(F29.97002997002997
I1280
I720
tp1758
sS'street_experiments_jkL4EQVDZFI'
p1759
(F29.833333333333332
I404
I720
tp1760
sS'childrens_learning_center_snow_play_and_mini_snowmobiles_A2gIT0Of8Sg'
p1761
(F30.0
I640
I358
tp1762
sS'sunday_bbq_lunch__gopro_time_lapse_BV8bzrH1Ez4'
p1763
(F29.97002997002997
I960
I720
tp1764
sS'vw_2014_golf_r_300bhp_pov_test_drive_gopro_N3I6pygsGUI'
p1765
(F23.976023976023978
I1280
I720
tp1766
sS'2_week_old_baby_goats_playing_FG2d-yZKfgE'
p1767
(F29.97002997002997
I480
I360
tp1768
sS'red_pandas_play_in_the_snow_ERwHvwsGFoE'
p1769
(F29.97002997002997
I1280
I720
tp1770
sS'puppy_and_kangaroo_play_chase_BjJU_2QuryA'
p1771
(F30.0
I1280
I720
tp1772
sS'how_to_draw_a_sea_turtle_with_a_fountain_pen__blue_ink_3k_DXbC2qNI'
p1773
(F29.97002997002997
I1280
I720
tp1774
sS'green_wing_macaw__magnolia_bird_farm_Iq0d_JAnEKE'
p1775
(F29.97002997002997
I1280
I720
tp1776
sS'vet_school_dog_procedure_with_google_glass_t_UIvtR4dEo'
p1777
(F30.0
I640
I360
tp1778
sS'dog_plays_dead_to_avoid_taking_a_bath_35qG2OQ-OD0'
p1779
(F15.0
I468
I352
tp1780
sS'walking_jade__steady_gopro_test_W3VIuI79sfc'
p1781
(F25.0
I1280
I720
tp1782
sS'shortbilled_dowitcher_HhaXpldwoC8'
p1783
(F25.0
I1280
I720
tp1784
sS'life_is_strange_episode_2_out_of_time__max_playing_the_guitar_hu6AVIvqSqo'
p1785
(F29.97002997002997
I1280
I720
tp1786
sS'gertjie_and_lammie_playing_together_0bL02GyIsKw'
p1787
(F29.97002997002997
I640
I360
tp1788
sS'raw_sheep_play_soccer_in_colombia_QNqqjzeAnFM'
p1789
(F29.97002997002997
I640
I360
tp1790
sS'zebras_grazing_and_playing_ngorongoro_crater_tanzania_NIpCVQxVeO0'
p1791
(F29.97002997002997
I1280
I720
tp1792
sS'man_throws_dog_into_garbage_truck_to_be_crushed_alive_-YhnqgjZHEM'
p1793
(F29.97002997002997
I1280
I720
tp1794
sS'dan_treadways_100foot_snowmobile_jump_in_the_whistler_backcountry_through_our_eyes_BtV9Sl1KJk8'
p1795
(F29.97002997002997
I1280
I720
tp1796
sS'snow_patrol__chasing_cars_GemKqzILV4w'
p1797
(F25.0
I640
I360
tp1798
sS'turbo_and_the_turtle_f51NniMwr1o'
p1799
(F30.0
I1280
I720
tp1800
sS'how_grows_a_baby_scarlet__macaw_zYm4A7D5vik'
p1801
(F30.0
I480
I360
tp1802
sS'gopro_hd__manus_jogging__qtmDya9hDQ'
p1803
(F29.97002997002997
I1280
I720
tp1804
sS'rc_monster_truck_at_the_dog_park_R92h7QUzhpM'
p1805
(F30.0
I1280
I720
tp1806
sS'full_video_shocking_moment_bear_kills_deer_in_back_garden_DLjtcLJuHas'
p1807
(F25.0
I480
I360
tp1808
sS'amazing_8_year_old_soccer_player_charlie_bontis_eW_DTmES4XM'
p1809
(F23.976023976023978
I1280
I720
tp1810
sS'the_totem_pole_wik_GabWqms'
p1811
(F29.97002997002997
I1280
I720
tp1812
sS'josh_malinas_cats_rkVWY2QcYsA'
p1813
(F30.0
I406
I720
tp1814
sS'gopro_lunch_break_longboard_session_1nKjjqO7xnc'
p1815
(F29.97002997002997
I1280
I720
tp1816
sS'australian_lyre_bird_nZp8-puBI3c'
p1817
(F23.976023976023978
I640
I360
tp1818
sS'pittsburgh_dog_sledding_L8JCHhU-MnU'
p1819
(F29.97002997002997
I1280
I720
tp1820
sS'turtle_sex__funny_funny_funny_turtle_making_weird_noises_7rE_FG2xauA'
p1821
(F29.97002997002997
I1280
I720
tp1822
sS'wwt_slimbridge_longbilled_dowitcher__closeup_uFbr1ftQbGc'
p1823
(F23.976023976023978
I1280
I720
tp1824
sS'moes_gopro_tips__tricks_1__driving_time_lapse_settings_demo_3oYHdaHeySQ'
p1825
(F15.0
I1280
I720
tp1826
sS'the_best_dog_jumping_video_you_will_ever_see_v3Chw2ZuBOk'
p1827
(F30.0
I480
I360
tp1828
sS'gopro_hero_test_time_lapse_sunday_lunch_NM3u1h50xhc'
p1829
(F12.0
I1280
I720
tp1830
sS'erlebnis_zoo_hannover_gopro_SleREktq0EE'
p1831
(F29.97002997002997
I1280
I720
tp1832
sS'britains_biggest_dog_VZGTeW6DnKk'
p1833
(F25.0
I1280
I720
tp1834
sS'gopro_4_black__parkour_in_brooklyn_zoo_with_head_strap_LIl4JkN2g54'
p1835
(F29.97002997002997
I1280
I720
tp1836
sS'virtual_reality_football_soccer_funny_UC6suYVm60s'
p1837
(F25.0
I640
I360
tp1838
sS'english_angora_rabbit_girls_playing_UQFBSiimlug'
p1839
(F30.0
I480
I360
tp1840
sS'mini_lop_rabbit_playing_football_sFOFDDnm9nk'
p1841
(F25.0
I1280
I720
tp1842
sS'time_lapse__driving_home_from_work__gopro_YFlgjUkblQk'
p1843
(F24.0
I1280
I720
tp1844
sS'our_fluffy_snowloving_creature__nala_compilation_C28vX1Z4z8Y'
p1845
(F25.0
I1280
I720
tp1846
sS'best_soccer_skillstricks_2012_FnEdZZylpg0'
p1847
(F24.0
I1280
I720
tp1848
sS'dewey_kids_beach_party__beach_ball_bounce_part_1_ELBvdT0IPXg'
p1849
(F30.0
I1280
I720
tp1850
sS'the_real_macaw_talking_parrot_YxEbKh40ttk'
p1851
(F23.976023976023978
I1280
I720
tp1852
sS'goat_and_dog_play_together_aCDoBKmzuYc'
p1853
(F30.0
I480
I360
tp1854
sS'kid_gets_owned_when_trying_to_catch_a_beach_ball_O2lUkFKBExg'
p1855
(F29.916666666666668
I204
I360
tp1856
sS'pirates_of_the_high_seas_beach_ball_drop_Q0XevU0opEk'
p1857
(F29.97002997002997
I202
I360
tp1858
sS'flappy_bird__the_movie__official_trailer_hd_jf2uhsZIgxQ'
p1859
(F29.97002997002997
I1280
I720
tp1860
sS'my_dogs_sing_while_cat_plays_piano_L8_6oNKR3Ac'
p1861
(F30.0
I568
I320
tp1862
sS'morning_jogging_with_my_dog_w_gopro_hero2_VpBqrgfWqhA'
p1863
(F25.0
I1280
I720
tp1864
sS'playing_beach_volleyball_with_google_glass_8FqxPhjti_M'
p1865
(F30.0
I1280
I720
tp1866
sS'dog_bleeding_out_denied_care_negligence_at_detroit_animal_control_5horPhI1pKE'
p1867
(F26.207
I202
I360
tp1868
sS'gopro_driving_timelapse_ha3aOHcHNsY'
p1869
(F29.97002997002997
I1280
I720
tp1870
sS'pbb_kenzo_playing_guitar_with_ylona_kpWcEc1GaDg'
p1871
(F29.902
I1280
I720
tp1872
sS'new_rare_cute_baby_turtles_eW18JnLQKpo'
p1873
(F29.97002997002997
I1280
I720
tp1874
sS'giant_beach_ball_dad_vs_kids_1MkNOGHveZQ'
p1875
(F20.75
I384
I288
tp1876
sS'polite_bear_waves_hello___a_waving_bear_upfchqBx9bw'
p1877
(F30.0
I540
I360
tp1878
sS'google_glass_dog_likes_peanut_butter_VY_8dWR7daM'
p1879
(F29.916666666666668
I1280
I720
tp1880
sS'katy_perry__dark_horse__ten_second_songs_20_style_cover_jus7S5vBJyU'
p1881
(F29.97002997002997
I1280
I720
tp1882
sS'birds_playing_with_cats_compilation_2014_new_UWxEvwivhL0'
p1883
(F30.0
I1280
I720
tp1884
sS'nxt_dog_sled_team_62AQ6UANCzI'
p1885
(F30.0
I480
I360
tp1886
sS'captain_kangaroo_with_mr_moose_and_bunny_rabbit_5LDgpQyuvAo'
p1887
(F29.97002997002997
I480
I360
tp1888
sS'dog_vs_water_balloons_oH8WoVvpbs8'
p1889
(F30.0
I480
I360
tp1890
sS'monster_jam__monster_mutt_dalmatian_monster_truck_freestyle__utep_sun_bowl_kqZ2I5teDJM'
p1891
(F29.97002997002997
I490
I360
tp1892
sS'cornish_rex_henry_playing_w_balloons_a69YXMGTX3A'
p1893
(F30.0
I352
I264
tp1894
sS'crazy_cliff_driving_crash__bmw_m3_drives_off_cliff_az_Vlgy5dbM'
p1895
(F29.97002997002997
I1280
I720
tp1896
sS'flemish_giant_and_tea_cup_chihuahua_plays_PJiMgoFcXS8'
p1897
(F30.0
I1280
I720
tp1898
sS'gopro_zoo_in_budapest_p00LjGn6MUw'
p1899
(F30.0
I1280
I720
tp1900
sS'3_watch_dogs_using_google_glass__especialistas_primetek_xEgOSNIAAgM'
p1901
(F29.97002997002997
I1280
I720
tp1902
sS'people_try_dog_food_for_the_first_time_nih0_66xBBw'
p1903
(F23.976023976023978
I1280
I720
tp1904
sS'kangaroo_rmi_gaillard_81szj1vpEu8'
p1905
(F25.0
I480
I360
tp1906
sS'ostrich_pillow_for_napping_anywhere_UoBLEvAQVRU'
p1907
(F30.0
I1280
I720
tp1908
sS'kyle_walkers_dog_house__spurverts__part_2_I4u1R8vWXE4'
p1909
(F25.0
I1280
I720
tp1910
sS'google_glass_mountain_bike_test__crash_ZRrl2H0InhQ'
p1911
(F29.97002997002997
I1280
I720
tp1912
sS'fluffy_bear_waving_cSPD9hxcbtM'
p1913
(F23.976023976023978
I1280
I720
tp1914
sS'larry_bird_top_10_plays_of_career_3lt1x-k3QGU'
p1915
(F29.97002997002997
I1280
I720
tp1916
sS'gopro_mike_jogging__peche_par_temps_chaud_et_humide_opCdkCouT3o'
p1917
(F29.97002997002997
I640
I360
tp1918
sS'really_funny_waving_bear_jNtShLaALOg'
p1919
(F29.97002997002997
I640
I360
tp1920
sS'jogging_mit_der_gopro_hero2_sNm95VMFYMk'
p1921
(F29.97002997002997
I1280
I720
tp1922
sS'polar_bear__running_machine_q62lVpfn1uI'
p1923
(F24.0
I500
I280
tp1924
sS'pet_the_lamb_that_thinks_its_a_dog_0y2ZxgJNlWs'
p1925
(F29.97002997002997
I202
I360
tp1926
sS'totem_poles_D67g476Ccws'
p1927
(F25.0
I480
I360
tp1928
sS'cat_people_vs_dog_people_hP7vTqPrVqk'
p1929
(F23.976023976023978
I1280
I720
tp1930
sS'gopro_epic_snowmobile_drop_UGuluMs0KTE'
p1931
(F29.97002997002997
I1280
I720
tp1932
sS'strre_beckasinsnppa__longbilled_dowitcher__limnodromus_scolopaceus__klipp__1172_z7TNkNGaZOE'
p1933
(F25.0
I1280
I720
tp1934
sS'kingmik_dog_sled_tours_lake_louise_alberta_canada_xqBPUrUE42Q'
p1935
(F25.0
I1280
I720
tp1936
sS'hd___aso_bears_waving_-CLh8codHHA'
p1937
(F29.97002997002997
I1280
I720
tp1938
sS'best_friends_cute_mini_lop_rabbit_drags_around_peter_rabbit_toy_3iKQqYCBQPs'
p1939
(F25.0
I1280
I720
tp1940
sS'abb_irb_140_gopro_hero_2_jogging_full_auto_4HMiqwsXAEw'
p1941
(F29.97002997002997
I960
I720
tp1942
sS'dogs_who_lost_the_fight_against_sleep_zKOtwfbvzmg'
p1943
(F23.976023976023978
I1280
I720
tp1944
sS'fun_quick_downhill_run_on_my_lunch_break__gopro_hero_3_7OnRJeFAzeA'
p1945
(F30.0
I960
I720
tp1946
sS'ambient_guitar_sketch_5_singing_into_pickups_R9S5ItcfXiM'
p1947
(F24.0
I1280
I720
tp1948
sS'fancam_exo_playing_with_balloons__fanmeeting_in_japan_day_1__150417_150418_150419_0mfm-ATtaSo'
p1949
(F30.0
I640
I360
tp1950
sS'robot_to_play_flappy_bird_kHkMaWZFePI'
p1951
(F29.97002997002997
I640
I360
tp1952
sS'confused_kitty__cat_vs_glass_SE5MslxPpVg'
p1953
(F29.97002997002997
I1280
I720
tp1954
sS'basic_freestyle_ski_tricks_ytVVdvp1A4s'
p1955
(F25.0
I480
I360
tp1956
sS'john_oliver_ukrains_yanukovychs_ostrich_OMKqaTD_DUE'
p1957
(F29.97002997002997
I1280
I720
tp1958
sS'best_of_freestyle_skiing_2013_C-rZ5rfBtO8'
p1959
(F29.97002997002997
I1280
I720
tp1960
sS'glassified_los_angeles_bike_commute_through_google_glass_SKZtPWkkbZE'
p1961
(F29.97002997002997
I1280
I720
tp1962
sS'birds_singing_and_dancing_to_dubstep_compilation_IBgJjMVKKRk'
p1963
(F25.0
I1280
I720
tp1964
sS'bear_and_man_spook_each_other_bEgeh5hA5ko'
p1965
(F30.0
I1280
I720
tp1966
sS'compilation_of_dogs_on_sleds_eovEh-MdC9c'
p1967
(F30.0
I1280
I720
tp1968
sS'child_guitar_prodigy_cNOo8jHrd2o'
p1969
(F29.97002997002997
I1280
I720
tp1970
sS'the_gummy_bear_song__long_english_version_astISOttCQ0'
p1971
(F30.0
I480
I360
tp1972
sS'the_fight_animals__lions_vs_ostrich__dramatic_and_documentary_thriller_UFeeI1PgbQg'
p1973
(F15.0
I640
I352
tp1974
sS'totem_pole__mayan_smithgobat__ben_rueck__tasmania__climbing__adidas_outdoor_BgHyb_42zcM'
p1975
(F29.97002997002997
I1280
I720
tp1976
sS'awesome_catch_by_the_bear_IVJApevLoHc'
p1977
(F29.850746268656717
I1280
I720
tp1978
sS'bird_vs_snake__latest_sightings_0Yjdf3woXl8'
p1979
(F29.97002997002997
I1280
I720
tp1980
sS'newborn_goat__kitten_playing_Vw-9KujPmD0'
p1981
(F30.0
I270
I360
tp1982
sS'lego_chima_ice_bear_tribe_pack_review_set_70230_P8NWFzhrKTw'
p1983
(F29.97002997002997
I1280
I720
tp1984
sS'gopro_walking_on_the_lake__holland_state_park_rt2P5dJenrk'
p1985
(F23.976023976023978
I1280
I720
tp1986
sS'picking_up_hot__sexy_california_girls_with_a_massage__funny_prank_53s8lfed6jU'
p1987
(F29.97002997002997
I1280
I720
tp1988
sS'dog_imitates_firetruck_sound_Y6LjNQ3nSz8'
p1989
(F30.0
I398
I224
tp1990
sS'dog_teaches_baby_to_jump__shadow_attack_iPdwKcdaeTI'
p1991
(F24.0
I1280
I720
tp1992
sS'animal_expert_david_mizejewski_lemur__ostrich_010814_E8-qxBINl28'
p1993
(F30.0
I1280
I720
tp1994
sS'get_directions_through_google_glass_V8ofTlynWPo'
p1995
(F29.97002997002997
I1280
I720
tp1996
sS'exploding_basketball_pyramid__dude_perfect_PfuzjAXfeio'
p1997
(F23.976023976023978
I1280
I720
tp1998
sS'stupid_prick_falls_through_ice_bear_grylls_Y9g3ef_q1hI'
p1999
(F24.0
I1280
I720
tp2000
sS'baby_lambs_running_jumping_playing_texel_sheep_-FxioHBQ5iw'
p2001
(F29.97002997002997
I480
I360
tp2002
sS'white_tiger_loves_her_ball_j7CEgLSo0Co'
p2003
(F29.97002997002997
I1280
I720
tp2004
sS'a_midnight_citi_bike_ride_through_nyc_with_google_glass_uAQ8-lKHw98'
p2005
(F29.97002997002997
I1280
I720
tp2006
sS'giant_kangaroo_moves_into_brisbane_suburb_in_australia_lAt7VPhz0WI'
p2007
(F29.97002997002997
I1280
I720
tp2008
sS'wild_google_glass_pov_on_skate_board___venice_beach_skate_park_37umkgpagei_VyBgKjRlFbY'
p2009
(F30.0
I1280
I720
tp2010
sS'a_basketball_will__your__tSVQj38qFRA'
p2011
(F29.97002997002997
I1280
I720
tp2012
sS'dogs_who_fail_at_being_dogs_kMhw5MFYU0s'
p2013
(F29.97002997002997
I1280
I720
tp2014
sS'dog_playing_piano_and_singing_IXcKrq2hEnE'
p2015
(F15.0
I320
I240
tp2016
sS'charles_paddock_zoo_gopro_edition_IaEydwQUY5A'
p2017
(F29.97002997002997
I1280
I720
tp2018
sS'gopro_hd_the_pioneer_pack_vs_the_zoo_crew_riljgSH4lZs'
p2019
(F29.97002997002997
I1280
I720
tp2020
sS'meet_our_senior_pet_of_the_week_periscope_022012_nBZjGfRCLFY'
p2021
(F29.97002997002997
I1280
I720
tp2022
sS'gopro_hero_3__black_edition__edinburgh_zoo_MnsR6WMfS44'
p2023
(F24.0
I1280
I720
tp2024
sS'dog_beach_and_novice_periscope_broadcaster_SL559IaTGzM'
p2025
(F24.0
I204
I360
tp2026
sS'large_singing__dancing__talking_macaw_Ay5iY94TJpI'
p2027
(F29.97002997002997
I1280
I720
tp2028
sS'white_tiger_plays_ipad__game_for_cats_gone_wild_lions_servals_and_more_DKBhTr5-ryg'
p2029
(F29.97002997002997
I1280
I720
tp2030
sS'play_doh_the_lion_king_simba_fuzzy_farm_jungle_animals_sheep_sheepdog_dohville_disneyplaydough_MRLUMVJkvyk'
p2031
(F29.97002997002997
I1280
I720
tp2032
sS'4th_grade_basketball_phenom_mike_miles_has_game_the_pointguard_prodigy_5ILbPFSc4_4'
p2033
(F29.97002997002997
I1280
I720
tp2034
sS'world_record_longest_basketball_hook_shot__harlem_globetrotters_p9BPRUxkZ0s'
p2035
(F29.97002997002997
I1280
I720
tp2036
sS'usa_talks_about_winning_gold__kansas_basketball__71315_sfPUnVhT8HU'
p2037
(F30.0
I1280
I720
tp2038
sS'must_watch_giant_kangaroo_moves_into_suburb_awSf3boUjMo'
p2039
(F25.0
I1280
I720
tp2040
sS'behind_the_scenes_with_hannah_and_her_horse_G8jJGa4NQtQ'
p2041
(F23.976023976023978
I1280
I720
tp2042
sS'feeding_my_dog_raw_liver_ZOHaLdeEUXA'
p2043
(F29.935
I1280
I720
tp2044
sS'walking_my_dog_with_google_glass_5lpVl2ZzjXM'
p2045
(F29.916666666666668
I1280
I720
tp2046
sS'san_diego_zoo_gopro_11715_vClLAEkSHQ4'
p2047
(F29.97002997002997
I1280
I720
tp2048
sS'gopro_driving_from_dewey_to_camp_verde_arizona_H3ytYVDht_I'
p2049
(F29.97002997002997
I1280
I720
tp2050
sS'smyths_toys__little_tikes_big_dog_truck_MNzoLtdu9JE'
p2051
(F25.0
I640
I360
tp2052
sS'santina_green_winged_macaw_goes_to_the_carnival_for_the_first_time_NcTKnVWdE7k'
p2053
(F29.97002997002997
I1280
I720
tp2054
sS'dogs_and_kangaroo_share_chips_N-NoehCCTqU'
p2055
(F30.0
I320
I240
tp2056
sS'grizzly_bear_battles_4_wolves_6rBBPKUpC4E'
p2057
(F29.97002997002997
I1280
I720
tp2058
sS'telling_stories_through_totem_poles_T5DECPQe8Pk'
p2059
(F29.97002997002997
I480
I360
tp2060
sS'how_to_play_chasing_cars_by_snow_patrol_on_guitar_UlDChbSe7b8'
p2061
(F29.97002997002997
I1280
I720
tp2062
sS'amazing_animal_facts_turtle_power_Ok9noKCtHYM'
p2063
(F23.976023976023978
I1280
I720
tp2064
sS'driving_a_1969_vw_beetle_bug_hd__sights_and_sounds_gopro_DFoR_Ii24A8'
p2065
(F29.97002997002997
I1280
I720
tp2066
sS'anna__elsa_puppies_dognapped_cruella_de_vil_kidnaps_dogs_disneytoysfan_ZAFVVTFSkxo'
p2067
(F29.97002997002997
I1280
I720
tp2068
sS'gopro_backflip_over_72ft_canyon__kelly_mcgarry_red_bull_rampage_2013_x76VEPXYaI0'
p2069
(F29.97002997002997
I1280
I720
tp2070
sS'premier_daniel_andrews_takes_on_matt__janes_periscope_challenge_pkRcJetdUhM'
p2071
(F25.0
I1280
I720
tp2072
sS'its_just_a_sheep_playing_soccer_ZRs44eUjkWw'
p2073
(F29.97002997002997
I400
I224
tp2074
sS'bully_dog_drag_truck_new_best_lzgBEYJJ-rU'
p2075
(F29.97002997002997
I1280
I720
tp2076
sS'periscope_twitters_livestreaming_app_may_kill_meerkat_0_0MynsbpOo'
p2077
(F23.976023976023978
I1280
I720
tp2078
sS'big_dogs_playing_with_babies_compilation_2015_new_hd_KPP6ebNbFXQ'
p2079
(F30.0
I1280
I720
tp2080
sS'carving_a_16_foot_totem_pole_part_1_of_2_Xk29zlRqA6A'
p2081
(F29.97002997002997
I540
I360
tp2082
sS'guantnamo_navy_bases_girl_scout_beach_through_google_glass_xG_0NUUIHPY'
p2083
(F30.0
I1280
I720
tp2084
sS'google_glass_venice_beach_skateboard_park_mHZZI6KAQeQ'
p2085
(F30.0
I1280
I720
tp2086
sS'snow_tha_product__play_lyrics_8Jm2-t_LvwQ'
p2087
(F29.97002997002997
I480
I360
tp2088
sS'technique_focus_mod_roc__making_a_totem_pole_vWrfseJ7fXA'
p2089
(F23.976023976023978
I1280
I720
tp2090
sS'how_to_monetize_periscope_0WB1QGbjggM'
p2091
(F30.0
I406
I720
tp2092
sS'waving_bear_so_cute_iKBHVbp_p0E'
p2093
(F26.666666666666668
I540
I360
tp2094
sS'gta_5_leaked_north_yankton_dlc_new_cars_snowmobile_more_gta_v_leaked_north_yankton_dlc_-MiRQFNrN6M'
p2095
(F29.97002997002997
I1280
I720
tp2096
sS'360degree_video_johnny_the_cat_SyAFVwafwQ0'
p2097
(F14.985014985014985
I1280
I640
tp2098
sS'funny_new_zealand_sheep_and_dog_playing_xGrnwQuNou8'
p2099
(F25.0
I384
I288
tp2100
sS'120121_kyuhyun_singing_with_sungmin_accompanying_him_guitar__spZZL2FJiMk'
p2101
(F24.0
I640
I360
tp2102
sS'2014_sep_16_gmt8_0613_3k_jogging_gopro_with_typhoon_kalmaegi_signal_no8_in_hung_hom_hk_BgNP-2f4rBo'
p2103
(F29.97002997002997
I480
I360
tp2104
sS'shortbilled_dowitcher__wood_duck_QTrrsGOaipg'
p2105
(F6.0
I1280
I720
tp2106
sS'man_catches_flying_bird_with_bare_hand_NFjFptZ1wGI'
p2107
(F23.976023976023978
I1280
I720
tp2108
sS'basic_freestyle_skiing_tricks_lucy_PnUmSaXxiU4'
p2109
(F29.97002997002997
I960
I720
tp2110
sS'superunknown_xi__best_skiing_trick_MsbXNhQ4xm4'
p2111
(F29.97002997002997
I1280
I720
tp2112
sS'cubs_first_steps_OkfEChXa2V0'
p2113
(F29.97002997002997
I1280
I720
tp2114
sS'dope_zebra__rhett__link_official_original_video_fljKx9nvrL4'
p2115
(F23.976023976023978
I1280
I720
tp2116
sS'dog_sledding_with_the_seaveys_mV0RskZD0lo'
p2117
(F30.0
I1280
I720
tp2118
sS'skidoo_snowmobile_crash_track_rips_in_half_while_climbing_hill_gotta_see_this_wreck__rollover_Ha_ZKFGG0jg'
p2119
(F29.97002997002997
I480
I360
tp2120
sS'girl_pulls_out_weave_playing_flappy_bird_IBVreSKQgtE'
p2121
(F29.97002997002997
I1280
I720
tp2122
sS'arrogant_cat_V3Y8IU6st5E'
p2123
(F30.0
I1280
I720
tp2124
sS'totem_pole_XH9TvVcvIR8'
p2125
(F14.985
I320
I240
tp2126
sS'how_to_stop_your_dog_from_jumping_on_you_xISPVQi_bvw'
p2127
(F30.0
I640
I360
tp2128
sS'why_cats_are_better_than_dogs_xSe1Gk_wwOY'
p2129
(F23.976023976023978
I1280
I720
tp2130
sS'blindfolded_beach_balls_with_twitch_ojzXHdL1pN8'
p2131
(F29.97002997002997
I1280
I720
tp2132
sS'playing_flappy_bird_xdJuzR6N04Y'
p2133
(F29.97002997002997
I1280
I720
tp2134
sS'jennette_mccurdy_periscope__cat_on_a_hot_tin_riff_SS2UXY-fqUg'
p2135
(F24.0
I202
I360
tp2136
sS'you_sank_my_baby_bird_RTnVvAb3BRk'
p2137
(F29.97002997002997
I960
I720
tp2138
sS'frozen_do_you_want_to_build_a_snow_man_lyrics_video_47kU1nrZ6Ps'
p2139
(F29.97002997002997
I960
I720
tp2140
sS'athens_hotels_hotel_periscope__greece_hotels_and_accommodation__hotelstv_aWW0MeugGm8'
p2141
(F25.0
I320
I240
tp2142
sS'lamb_who_was_raised_by_collies_thinks_she_is_a_sheep_dog_kstcFGc_FUE'
p2143
(F25.0
I1280
I720
tp2144
sS'a_bird_that_does_the_most_amazing_things_ever_a_must_watch_V6Fxclwdfxc'
p2145
(F29.97002997002997
I480
I360
tp2146
sS'google_glass_cycling_app_wUutgJlhO0A'
p2147
(F30.0
I1280
I720
tp2148
sS'video_game_style_jogging__gopro_cam_NAhXWUpjXrc'
p2149
(F25.0
I1280
I720
tp2150
sS'rex_mini_rabbit_playing_with_pet_rabbit_toys_gCCJgA77vbQ'
p2151
(F29.97002997002997
I320
I240
tp2152
sS'i_inherited_a_sled_dog_team__indie_alaska_Fe8v0UqGR6I'
p2153
(F23.976023976023978
I1280
I720
tp2154
sS'bear_waving_goodbye__very_funny_U9rcqpu5bUo'
p2155
(F26.666666666666668
I540
I360
tp2156
sS'2015_budweiser_super_bowl_commercial_lost_dog__budweiser_bestbuds_xAsjRRMMg_Q'
p2157
(F23.976023976023978
I1280
I720
tp2158
sS'the_only_man_in_the_world_who_can_swim_with_a_polar_bear_grizzly_man_g7rZTZBOrqQ'
p2159
(F25.0
I1280
I720
tp2160
sS'dog_wearing_google_glasses__google_glass_parody__petody_JoF4dzHTvzE'
p2161
(F24.0
I1280
I720
tp2162
sS'the_bird_and_the_worm_full_homestuck_mep_3Tj9ndJFd5c'
p2163
(F29.97002997002997
I1280
I720
tp2164
sS'google_glass__bike_ride_from_santa_monica_to_venice_beach_I67Wgtlws9A'
p2165
(F30.0
I1280
I720
tp2166
sS'snowmobile_wheelies_on_water_iRonRtbnI9A'
p2167
(F25.0
I1280
I720
tp2168
sS'iconic_totem_poles_fd6A2-yphUs'
p2169
(F29.97002997002997
I480
I270
tp2170
sS'dog_sled_surprise_bf5z3sXybwg'
p2171
(F23.976023976023978
I1280
I720
tp2172
sS'homeless_dog_living_in_a_cardboard_box_gets_rescued__has_a_heartwarming_transformation_RD8kf4453cY'
p2173
(F25.0
I1280
I720
tp2174
sS'14_year_old_girl_playing_guitar_cover_van_halen__eruption_solo_hd_best_quality_fDTm1IzQf-U'
p2175
(F25.0
I640
I360
tp2176
sS'peppa_pig_ballerina__giant_spider_goop_candy_cat_plays_in_muddy_puddles_hobbykidstv_i3f2MTURO3g'
p2177
(F29.97002997002997
I1280
I720
tp2178
sS'have_to_see_hilarious_ostrich_race__colonial_downs_5_pn727I2-E'
p2179
(F23.976023976023978
I1280
I720
tp2180
sS'orangutans_go_ape_with_gopro_blackpool_zoo_WlggDHQROt8'
p2181
(F25.0
I1280
I720
tp2182
sS'life__cheetahs_hunt_ostrich__challenges_of_life_8oV6SqyemCk'
p2183
(F29.97002997002997
I640
I360
tp2184
sS'google_glass_bike_ride_6s5RCIQhJHQ'
p2185
(F30.0
I1280
I720
tp2186
sS'mountain_biking_taken_with_google_glass_explorer_2_EDTdnmae1AU'
p2187
(F29.97002997002997
I1280
I720
tp2188
sS'ostrich_mating_dance_hd-ueLAgIQU'
p2189
(F25.0
I480
I360
tp2190
sS'farting_on_dogs_CJrIc2WeJHA'
p2191
(F29.97002997002997
I1280
I720
tp2192
sS'bowie_talks_to_angry_bird_b5b3g1ISviQ'
p2193
(F30.0
I1280
I720
tp2194
sS'kids_playing_with_lots_of_balloons_N74Ceu-By38'
p2195
(F25.0
I640
I360
tp2196
sS'a_bike_ride_as_recorded_by_google_glass_throughglass_vt9i-i545lM'
p2197
(F30.0
I1280
I720
tp2198
sS'diy_cat_paws__fluffy_paws__meow_meow_Iz2g1yWqLJw'
p2199
(F23.976023976023978
I1280
I720
tp2200
sS'lion_head_rabbit_playing_football_c-BbCNUzuPY'
p2201
(F29.97002997002997
I1280
I720
tp2202
sS'bird_wakes_his_best_frienda_cat_sumn6flhNtg'
p2203
(F30.0
I480
I360
tp2204
sS'best_basketball_vines_compilation_vol_1_edl8JsaZaoA'
p2205
(F25.0
I1280
I720
tp2206
sS'amazing_totem_poles_648gwElcPzU'
p2207
(F30.0
I320
I240
tp2208
sS'____rabbit_playing_drums__2MNBoWKJBPQ'
p2209
(F29.97002997002997
I480
I360
tp2210
sS'red_panda_playing_in_the_snow_y6GaPkkGZGw'
p2211
(F29.97002997002997
I640
I360
tp2212
sS'shaun_the_sheep_championsheeps__beach_volleyball_official_video_ezc9VNTDx38'
p2213
(F25.0
I1280
I720
tp2214
sS'dog_jumps_off_cliff_gopro_hd_EREQEy2tOxo'
p2215
(F29.97002997002997
I1280
I720
tp2216
sS'butterflies__simons_cat_a_valentines_special_TZPN9g2pmPQ'
p2217
(F25.0
I1280
I720
tp2218
sS'chill_turtle_takes_gopro_on_a_leisurely_swim_through_great_barrier_reef__mashable_AJ5Je7SBk0k'
p2219
(F23.976023976023978
I1280
I720
tp2220
sS'lunch_break_gopro_hero_4_silver_cvWEfHFMwNg'
p2221
(F29.97002997002997
I640
I360
tp2222
sS'short_billed_dowitcher_lodmoor_015_NVJaTmJ-iec'
p2223
(F25.0
I480
I360
tp2224
sS'how_to_think_faster_on_the_field__speed_of_play__online_soccer_academy_fynBmunDu1E'
p2225
(F30.0
I1280
I720
tp2226
sS'fifth_harmony_singing_heart_attack_by_demi_lovato_camila_playing_the_guitar_BaIIx-Q8o9s'
p2227
(F25.0
I480
I360
tp2228
sS'funny_guilty_dogs_compilation_2015_new_hd_kZw-jgCRPeE'
p2229
(F30.0
I1280
I720
tp2230
sS'bike_finder__google_glass_d99Sg-09zuc'
p2231
(F25.0
I1280
I720
tp2232
sS'spiderman_basketball_part_1_m7D-67xqwYE'
p2233
(F23.976023976023978
I1280
I720
tp2234
sS'tribe_snoz__totem_pole_tReVmUtDTJo'
p2235
(F30.0
I352
I200
tp2236
sS'german_shepherd_luca_and_sheep_playing_Iah7E2tgt_M'
p2237
(F29.97002997002997
I480
I360
tp2238
sS'gopro_driving_the_case_maxxum_125_Ue8mk7Ms6zw'
p2239
(F29.97002997002997
I1274
I720
tp2240
sS'raising_rabbits_for_meat_rabbit_playing_k8TEY6_PD8s'
p2241
(F29.97002997002997
I480
I288
tp2242
sS'ostrich_lays_egg_BarYhKBEmfc'
p2243
(F30.0
I480
I360
tp2244
sS'polar_bear_killed_by_a_walrus_-nBpugLyQTs'
p2245
(F23.976023976023978
I480
I360
tp2246
sS'best_talking_macaw_ever_wRGcPa80Y1c'
p2247
(F25.0
I1280
I720
tp2248
sS'cat_friends_with_a_fish__cat_and_fish_playing_in_a_bathtub_2ooqNPfSBSA'
p2249
(F29.97002997002997
I1280
I720
tp2250
sS'macaw__get_people_nhYeNaOsmhw'
p2251
(F29.97002997002997
I1280
I720
tp2252
sS'gopro_arctic_dogsled_O_Mg0bdfW2c'
p2253
(F25.0
I1280
I720
tp2254
sS'broadwaycom_live_on_periscope_twotime_tony_award_winner_sutton_foster_of_younger_quick_fan_chat_d9UZNZwbyNo'
p2255
(F24.0
I202
I360
tp2256
sS'vine_funny_dog_jumping_in_water_05pXAwm8EJk'
p2257
(F29.97002997002997
I360
I360
tp2258
sS'capital_cities___kangaroo_court_lyrics_ingles__subtitulado_en_espaol_LpHANr1KjnM'
p2259
(F12.5
I320
I240
tp2260
sS'new_born_baby_sea_turtles_race_to_the_ocean_T8eGw1oyYoQ'
p2261
(F30.0
I1280
I720
tp2262
sS'cat_at_periscope_depth____gjAbCF8V00o'
p2263
(F25.0
I638
I360
tp2264
sS'walking_deads_norman_reedus_tries_periscope_for_first_time_during_wrap_shoot__AWiR_1tCPI'
p2265
(F23.976023976023978
I1280
I720
tp2266
sS'when_the_dog_stays_at_home_alone______7D5bPLxU8U8'
p2267
(F25.0
I600
I360
tp2268
sS'kangaroo__leo_aberer__official_video_tZgYyPFAiTc'
p2269
(F25.0
I1280
I720
tp2270
sS'impossible_remix__five_nights_at_freddys_3_balloons_mandopony_uxecvB0hqq4'
p2271
(F25.0
I1280
I720
tp2272
sS'gopro_hero_4_4k_driving_test_xdiNs5qacM8'
p2273
(F30.0
I1280
I720
tp2274
sS'first_periscope_cats_available_for_adoption_at_helping_hands_humane_society_in_topeka_kansas_u34KDj--TaI'
p2275
(F24.0
I202
I360
tp2276
sS'hd_gopro_preikestolen__walking_the_edge_litt_p_kanten___GnXHNPNBRSw'
p2277
(F25.0
I1280
I720
tp2278
sS'zebra_playing_the_guitar_pg_barcelona_nHQWJdmWzkE'
p2279
(F30.0
I406
I720
tp2280
sS'peppa_pig_sleepover_slumber_party_with_suzy_sheep_play_doh_dctoyscollector_fiesta_de_pijamas_5m4PNMlLzPk'
p2281
(F29.97002997002997
I1280
I720
tp2282
sS'so_you_think_horse_riding_is_easy_hrpRVbLRoJ4'
p2283
(F29.97002997002997
I960
I720
tp2284
sS'kid_gets_hit_with_giant_beach_ball_C8JQqMsN0Bk'
p2285
(F29.97002997002997
I384
I288
tp2286
sS'cute_munchkin_baby_kitten_talks_too_much_YZs3EADi2pQ'
p2287
(F25.0
I480
I360
tp2288
sS'cute_dog_having_fun_in_a_water_fountain_ZqL5ZNidfVY'
p2289
(F30.0
I1280
I720
tp2290
sS'robbie_kennedy_with_his_acoustic_guitar_singing_iris_week_3_auditions__britains_got_talent_2013_WDDU_pBfdfI'
p2291
(F25.0
I1280
I720
tp2292
sS'diy_sparkly_fake_snow_d_rWIjnEq7s'
p2293
(F23.976023976023978
I1280
I720
tp2294
sS'my_tamed_zebra_finches_iFkPrmcLTxU'
p2295
(F30.0
I320
I240
tp2296
sS'bird_in_no_need_for_love_RzvV6nWvslQ'
p2297
(F29.97002997002997
I1280
I720
tp2298
sS'trying_to_eat_with_a_cat_around_gfWVggwa2dQ'
p2299
(F29.97002997002997
I1280
I720
tp2300
sS'best_funny_dogs_vs_balloons_compilation_2014__ahf_5onpGhckv4I'
p2301
(F29.97002997002997
I1280
I720
tp2302
sS'dog_steals_hose_and_sprays_owner_jqZueLp_3yU'
p2303
(F29.97002997002997
I1280
I720
tp2304
sS'man_turns_his_house_into_indoor_cat_playland_and_our_hearts_explode_okOVxfuSYPk'
p2305
(F29.97002997002997
I1280
I720
tp2306
sS'dewey_kids_beach_party__beach_ball_bounce_part_3_p5MirsdlkrQ'
p2307
(F30.0
I1280
I720
tp2308
sS'tony_drake_blind_and_autistic_singing_and_playing_guitar__unchained_melody_p63PTArsCdg'
p2309
(F30.0
I540
I360
tp2310
sS'the_worlds_first_periscope_star__instafamous_ujf7L08JLHY'
p2311
(F23.976023976023978
I1280
I720
tp2312
sS'tiger_play_in_south_africa_with_john_tigerman_wagenaar_jDjohN19ysM'
p2313
(F25.0
I640
I352
tp2314
sS'kid_getting_hit_in_the_head_with_beach_ball3gp_XTfEm8QzqJg'
p2315
(F30.0
I1280
I720
tp2316
sS'goat_plays_chess_wq7Y2xx-U6A'
p2317
(F25.0
I1280
I720
tp2318
sS'playing_with_a_zebra_in_mauritius_cgC2-QKfg54'
p2319
(F30.0
I1280
I720
tp2320
sS'dog_jumping_on_trampoline_G5I0T9NYu54'
p2321
(F30.0
I568
I320
tp2322
sS'cat_at_periscope_depth____ktZCwMdHMRg'
p2323
(F25.0
I638
I360
tp2324
sS'through_google_glass_biking_around_lake_tahoe_THoenh-DxiQ'
p2325
(F29.97002997002997
I1280
I720
tp2326
sS'gopro__summer_2014_edit_trailer__rhode_island_southwick_zoo_new_england_dragway_Fm4C1sclx48'
p2327
(F29.97002997002997
I1280
I720
tp2328
sS'polite_bear_waves_hello_to_car_passenger_7Mer3pgT7n4'
p2329
(F29.97002997002997
I540
I360
tp2330
sS'bird__no_tint_official_music_video_8bdhC-zjqv0'
p2331
(F23.976023976023978
I1280
I720
tp2332
sS'lion__tiger_playtime_57fSN4Ee0ho'
p2333
(F29.97002997002997
I1280
I720
tp2334
sS'public_prank__singing_club_songs_to_people_KSCjVNycktw'
p2335
(F29.97002997002997
I1280
I720
tp2336
sS'live_broadcasting_periscope_app_sparks_concerns_YkiOavwA_Hs'
p2337
(F24.0
I1280
I720
tp2338
sS'flying_snowmobile__15km_high_mountain_j6M0vP1rWm4'
p2339
(F25.0
I1280
I720
tp2340
sS'san_diego_zoo__seaworld_through_my_gopro_U2CkkWSucXM'
p2341
(F29.97002997002997
I1280
I720
tp2342
sS'honda_civic_si_2012_gopro__3rd_day_manual_drive_pov_learning_XiDWUo3J_S8'
p2343
(F29.97002997002997
I1280
I720
tp2344
sS'snowmobile_goon_riding_K3-B_9El_0U'
p2345
(F29.97002997002997
I1280
I720
tp2346
sS'cute_aggressive_baby_zebra_shoves_adorable_baby_camel_out_of_the_way_-XDCp2bKEjw'
p2347
(F29.97002997002997
I540
I360
tp2348
sS'funny_dogs_playing_dead_after_finger_shot__funny_and_cute_dog_compilation_DbW22LKbb4s'
p2349
(F29.97002997002997
I1280
I720
tp2350
sS'vlog_4_playing_around_with_balloons_MF45cMLIuW0'
p2351
(F29.97002997002997
I480
I360
tp2352
sS'nigerian_dwarf_goat_kids_playing_wvNSstp-7k8'
p2353
(F29.97002997002997
I960
I720
tp2354
sS'the_wiggles__tie_me_kangaroo_down_sport_featuring_rolf_harris_PmiDb-8zF34'
p2355
(F29.97002997002997
I540
I360
tp2356
sS'dog_and_deer__best_friends_forever_cmOMA6CqL68'
p2357
(F29.97002997002997
I640
I360
tp2358
sS'fish_plays_fetch_like_a_dog_jGxOK-bS4NM'
p2359
(F29.97002997002997
I1280
I720
tp2360
sS'polar_bear_love_cute_polar_bear_cubs_lovin_up_their_mamma_CbILj_CYqno'
p2361
(F29.97002997002997
I1280
I720
tp2362
sS'gopro_cam_landing_at_strawberry_inn_for_lunch_rGgQ9QwrjVw'
p2363
(F29.97002997002997
I1280
I720
tp2364
sS'clydesdale_horses_playing_football_interrupted_by_streaking_sheep_on_pitch_F35hBt-SZ9w'
p2365
(F25.0
I1280
I720
tp2366
sS'basketball_wives_la_brandi_vs_mehgan_sneak_peek_YVCJz7QIcew'
p2367
(F29.97002997002997
I640
I360
tp2368
sS'teenager_throwing_beach_ball_at_kids_cEl7IgtUCoE'
p2369
(F30.0
I1280
I720
tp2370
sS'photo_of_dog_chasing_truck_sparks_debate_in_slidell__8pGr2eH5uI'
p2371
(F30.0
I640
I360
tp2372
sS'lego_movie_60048_police_dog_unit__legocom_6YD7s5tRKiY'
p2373
(F29.97002997002997
I1280
I720
tp2374
sS'shortbilled_dowitcher_lodmoor_rspb_24092012_vBh1OuSXoHk'
p2375
(F30.0
I1280
I720
tp2376
sS'gopro_florida_brevard_zoo_ljwA0xtv5DA'
p2377
(F29.97
I1280
I720
tp2378
sS'watch_this_dogs_amazing_transformation_after_being_rescued_kVbPAzOCGt4'
p2379
(F29.97002997002997
I1280
I720
tp2380
sS'hd_clever_polar_bear_stalks_seal__polar_bear_spy_on_the_ice_preview__bbc_one_B0DCOTaZgtA'
p2381
(F25.0
I1280
I720
tp2382
sS'funny_powder_sled_disapears_climb_2011_m8_rangeley_maine_snowmobile_z33jp1-sUlM'
p2383
(F29.97002997002997
I960
I720
tp2384
sS'how_to_play_flappy_bird_in_gta_5_gta_5_flappy_bird_easter_egg_tutorial_gg9ZXuPFZic'
p2385
(F29.97002997002997
I1280
I720
tp2386
sS'what_kinds_of_toys_do_rabbits_like__pet_rabbits_Z-1faBh7DIs'
p2387
(F23.976023976023978
I1280
I720
tp2388
sS'polite_bear_waves_hello__a_waving_bear_O6Xo21L0ybE'
p2389
(F30.0
I540
I360
tp2390
sS'how_to_make_herobrine_totem_pole_132_QFaW4rPyRZo'
p2391
(F30.0
I1280
I678
tp2392
sS'highlining_the_totempole_hd_rFM3OUUL5fI'
p2393
(F25.0
I1280
I720
tp2394
sS'the_trampoline_dog_Hly0vuXPG-M'
p2395
(F14.985014985014985
I480
I360
tp2396
sS'funny_cats_and_kittens_meowing_compilation_2014_hd_DXUAyRRkI6k'
p2397
(F30.0
I1280
I720
tp2398
sS'animal_jam__polar_bear_snow_delicious_3U1eqtmjWqc'
p2399
(F24.0
I1280
I720
tp2400
sS'gopro_walking_FTcx37CHDfo'
p2401
(F30.0
I1280
I720
tp2402
sS'minecraft_xbox__ps3__zombie_horse__skeleton_horse_in_tu19_KQRW7gBGPB4'
p2403
(F29.97002997002997
I1280
I720
tp2404
sS'standing_dog_plays_piano_and_sings_g_Rq9uwF4k8'
p2405
(F23.976023976023978
I1280
I720
tp2406
sS'parry_gripp__turtle_LRWAFQqQY9Y'
p2407
(F29.97002997002997
I1280
I720
tp2408
sS'ostrich_mating_dance_and_laying_egg_zJZ4ELkLC4s'
p2409
(F29.97002997002997
I1280
I720
tp2410
sS'dog_vs_sprinkler_YHxkW2a8rAU'
p2411
(F30.0
I1280
I720
tp2412
sS'chinese_robot_plays_flappy_bird_i1_X2KdUQe8'
p2413
(F30.0
I480
I360
tp2414
sS'squeeze__periscope_otIb-BAN2pI'
p2415
(F25.0
I320
I240
tp2416
sS'fake_disguisereal_soccer_player_insane_freestyler_wN3GldmOa-0'
p2417
(F24.0
I640
I360
tp2418
sS'my_dog_jumping_high_KNiZCWI8C0g'
p2419
(F29.97002997002997
I480
I360
tp2420
sS'ib_icebear__studio_action_im_sden_Ou3DjbVameg'
p2421
(F29.97002997002997
I1280
I720
tp2422
sS'nunavut_teens_toronto_mural_periscope_test_YK26ASKMZU4'
p2423
(F29.518
I202
I360
tp2424
sS'dog_whisperer_trainer_walks_pack_of_dogs_without_a_leash_Cbtkoo3zAyI'
p2425
(F25.0
I1280
I720
tp2426
s.