(lp0
(I0
I01
tp1
a(I960
I01
tp2
a(I1410
I01
tp3
a(I2220
I01
tp4
a(I2280
I01
tp5
a(I3270
I01
tp6
a(I4410
I01
tp7
a(I5100
I01
tp8
a(I5310
I01
tp9
a(I6120
I01
tp10
a(I6330
I01
tp11
a(I6660
I01
tp12
a(I6780
I01
tp13
a(I6900
I01
tp14
a(I7260
I01
tp15
a(I7380
I01
tp16
a(I8160
I01
tp17
a(I8370
I01
tp18
a(I8490
I01
tp19
a(I8550
I01
tp20
a.