(lp0
(I0
I01
tp1
a(I30
I01
tp2
a(I210
I01
tp3
a(I360
I01
tp4
a(I990
I01
tp5
a(I1320
I01
tp6
a(I1380
I01
tp7
a(I1530
I01
tp8
a(I1620
I01
tp9
a(I1860
I01
tp10
a(I2220
I01
tp11
a(I3000
I01
tp12
a(I3180
I01
tp13
a(I3930
I01
tp14
a(I4080
I01
tp15
a.