(lp0
(I0
I01
tp1
a(I90
I01
tp2
a(I1110
I01
tp3
a(I1620
I01
tp4
a(I1680
I01
tp5
a(I2160
I01
tp6
a(I2610
I01
tp7
a(I2700
I01
tp8
a(I2910
I01
tp9
a(I3360
I01
tp10
a(I3930
I01
tp11
a(I4050
I01
tp12
a(I4140
I01
tp13
a(I4380
I01
tp14
a(I4530
I01
tp15
a(I4710
I01
tp16
a(I5220
I01
tp17
a(I5400
I01
tp18
a(I5580
I01
tp19
a(I6090
I01
tp20
a(I6750
I01
tp21
a(I7500
I01
tp22
a.