(lp0
(I0
I01
tp1
a(I240
I00
tp2
a(I330
I01
tp3
a(I2880
I01
tp4
a(I4080
I01
tp5
a(I4770
I01
tp6
a(I5040
I01
tp7
a(I5190
I01
tp8
a(I5640
I01
tp9
a(I5820
I01
tp10
a(I5940
I01
tp11
a(I6630
I01
tp12
a(I6660
I01
tp13
a.