(lp0
(I0
I01
tp1
a(I150
I01
tp2
a(I360
I01
tp3
a(I450
I01
tp4
a(I600
I01
tp5
a(I690
I01
tp6
a(I840
I01
tp7
a(I960
I01
tp8
a(I2040
I01
tp9
a(I2160
I01
tp10
a(I2790
I01
tp11
a(I2820
I01
tp12
a(I2910
I01
tp13
a(I3540
I01
tp14
a(I3630
I01
tp15
a(I4080
I01
tp16
a(I4140
I01
tp17
a(I4470
I01
tp18
a(I4680
I01
tp19
a(I4800
I01
tp20
a(I5010
I01
tp21
a(I5130
I01
tp22
a(I5460
I01
tp23
a(I5580
I01
tp24
a(I5670
I01
tp25
a(I5700
I01
tp26
a.