(lp0
(I0
I01
tp1
a(I180
I01
tp2
a(I420
I01
tp3
a(I540
I01
tp4
a(I630
I01
tp5
a(I1950
I01
tp6
a(I2400
I01
tp7
a(I3030
I01
tp8
a(I4110
I01
tp9
a(I4800
I01
tp10
a(I7560
I01
tp11
a(I7680
I01
tp12
a(I7800
I01
tp13
a(I7860
I01
tp14
a.