(lp0
(I0
I01
tp1
a(I240
I01
tp2
a(I690
I01
tp3
a(I780
I01
tp4
a(I840
I01
tp5
a(I960
I01
tp6
a(I1380
I01
tp7
a(I1500
I01
tp8
a(I1620
I01
tp9
a(I1740
I01
tp10
a(I1800
I01
tp11
a(I1920
I01
tp12
a(I2100
I01
tp13
a(I2160
I01
tp14
a.