(dp0
S'ice_energy_ice_bear_new_technology_F4arHI6Ul90'
p1
I6241
sS'dog_sledding_3_dog_team_memphis_pulls_a_sled_r-7O5cKwDQo'
p2
I8390
sS'goats_vs_dogs_compilation_60DxgZ8_NyA'
p3
I7468
sS'beach_ball_cookies_for_pool_party_hanielas_pS2TpEWRGm0'
p4
I8273
sS'funny_minions_play_soccer__football__minions_mini_movie_2015_ovch0Hk-ehc'
p5
I5053
sS'me_and_my_horse_jumping__36_7TrxVA8vR-w'
p6
I8775
sS'the_next_messi_5_year_old_soccer_player_young_messi_aeuedy8udSA'
p7
I2691
sS'bunnies_play_tag_JpLoyjBIhqs'
p8
I7892
sS'2013_nyc_central_park_zoo_using_gopro_on_a_steadicam_curve_gimbal_emOkrq1xKk8'
p9
I5888
sS'longbilled_dowitcher_adult_summ_plum_lille_vildmose_aalborg_denmark_452010_KN1CfH-akjA'
p10
I6973
sS'_unbroken___bad_horse_riding_falls_xzMu9nadnKQ'
p11
I7323
sS'kangaroo_vs_emu_fight_d9OBqYbZ99c'
p12
I8451
sS'me_singing_love_sosa_by_chief_keef_with_guitar_cTRhpy98-NU'
p13
I2024
sS'little_tikes_ultimate_beach_ball_sprinkler_JErXCVs1jnU'
p14
I1569
sS'carlos_the_cat_new_pet__vlog_93_cWHpky34Hwk'
p15
I518
sS'cats_and_dogs_vs_balloons__funny_animal_compilation_b0KSxH37gVE'
p16
I5934
sS'bondi_beach_through_google_glass_M5F1F8vZnVA'
p17
I3349
sS'play_doh_cars_angry_birds_space_mater__lightning_mcqueen_as_red_bird_and_bad_piggies_disney_pixar_YhtFax1GZOc'
p18
I6464
sS'giraffe_and_zebra_playing_at_the_toledo_zoo_R3EmO1qsTm0'
p19
I733
sS'sea_turtle_migration_video_ZS0kXtmXuj8'
p20
I568
sS'sea_lion_roby_does_the_high_dive_at_saint_louis_zoo_gopro_Li8CBOYxaSY'
p21
I1357
sS'zebra_finches_playing_UuWFpxqGCEM'
p22
I1580
sS'learn_how_to_ski_in_the_park__trailer_for_the_ski_addiciton_full_freeski_program_MJVQZoX8Y0w'
p23
I5414
sS'gopro_hero3_jogging_with_my_boys_in_the_pram___8x_speed_K_xIPN9zqRI'
p24
I2418
sS'rip_coopydog_howls_at_fire_truck_siren__hillarious_pn5MVDzjzh4'
p25
I6645
sS'dog_sled_saga__dog_traits_trailer_sgBU1QKlsoE'
p26
I8328
sS'peppa_pig_and_sofia_the_first_sleepover_slumber_party_zoe_zebra_royal_bed_disneycartoys_JXuQLCNIzOI'
p27
I2589
sS'longbilled_dowitcher_call_askviken_vstmanland_sweden_nPSYDhuVWoE'
p28
I390
sS'jack_the_sheep_who_thinks_hes_a_dog_c3VQSDJzBT8'
p29
I1249
sS'ninja_polar_bear__narrated_by_david_tennant_MC26JK9nk-8'
p30
I3434
sS'shortbilled_dowitcher_AIAv5ApJBl8'
p31
I5896
sS'amazing_9_year_old_soccer_player_stefan_mitrovic_9_mini_world_cup_2012_mvp_56Hb1AdSV1U'
p32
I3793
sS'remove_cat_before_flight_J_8mdH20qTQ'
p33
I911
sS'polar_bear_spy_on_the_ice_polar_bear_hunts_a_seal_Qw_j2H_aqOU'
p34
I8561
sS'playing_hockey_with_cute_dachshund_dogs_mhTJtNVMvS8'
p35
I7159
sS'google_glass_dog_cam_HdBupDwkFiU'
p36
I7532
sS'jogging_with_hendrik_and_gopro_hero_4_silver_Y7avJ7yHH-Y'
p37
I677
sS'playing_and_dream_of_sheep_kate_bush_EvGTfnuSHNw'
p38
I6674
sS'world_championship_dog_sled_races_2013_i5iBGT-JHj4'
p39
I8278
sS'dead_knut_icebear_polarbear_o9P_gUtZN-E'
p40
I1823
sS'crusader_kings_ii__horse_lords_release_trailer_rtVIu4fHOS4'
p41
I4163
sS'angry_birds_transformers_toys__optimus_prime_bird_raceway_unboxed_pdthCrBIO4I'
p42
I2735
sS'kid_gets_owned_by_blow_up_beachball_ACqKhh5nfO0'
p43
I6093
sS'funny_one_piece__luffy_and_usopp_play_in_the_snow_uVJ6h0aH-l4'
p44
I516
sS'a_free_lunch_crab_trap_and_gopro_camera_LJN7Y-Q_fRM'
p45
I2525
sS'making_a_dog_sled_d-S760pOwmA'
p46
I4734
sS'enterplay_super_mario_nintendo_dog_tags_collectors_tin_unboxing_by_bins_toy_bin_Xkpk2mDNqE8'
p47
I6933
sS'coon_dog_rock_and_raccoon_ringo_playing_8qYGa3O_DZ0'
p48
I5907
sS'dog_in_garbage_truck_WCmhpkqzvKU'
p49
I731
sS'funny_cats_playing_in_the_snow_first_time_compilation_2015_ipIVFfMUYFs'
p50
I6321
sS'horse_L46iCN6MBFM'
p51
I1674
sS'kevin_hart__i_dont_like_ostrichs_5XxjEtYiyoE'
p52
I7325
sS'hilarious_macaw_talking_kACHmHhQlkM'
p53
I6225
sS'best_basketball_vines_compilation_vol_16_kaSI2UbUeng'
p54
I6353
sS'6weekold_baby_zebra_plays_on_safari_SWIMXcWqpvo'
p55
I4662
sS'tucker_piano_dec_72010wmv_PiblYasnzWE'
p56
I8569
sS'blind_kellar_plays_fetch_Ha92yzmVv2s'
p57
I5824
sS'hiking_yosemite__gopro_adventure_mQolhxw4VNc'
p58
I4945
sS'rescuing_a_scared_homeless_dog_just_before_a_rain_storm_please_share_OOdZAQ0YD3w'
p59
I2941
sS'dutch_rabbit_playing_BYBskNZxbNo'
p60
I2788
sS'jamies_world__balloons_9wl9yYi2ckg'
p61
I4470
sS'cat__bunny_best_friends_AHKLtpCH2zA'
p62
I2109
sS'hold_tight_take_a_wild_sled_dog_ride_with_4time_iditarod_champ_jeff_king_dAHa-6VkUQY'
p63
I2551
sS'cool_cute_cubs__amazing_animal_babies_polar_bear_cubs_ep_6__earth_unplugged_spx-0FrsLKQ'
p64
I7309
sS'kenworth_t904_truck_and_dog_AKQZOWSesKc'
p65
I287
sS'my_dog_wearing_the_gopro_walking_on_the_beach_at_oak_island_nc_watch_in_hd_BJJJQAziOhY'
p66
I5262
sS'sprikler_beach_ball_for_kids__backyard_and_beach_fun_hook_to_water_hose_CbdHRajfYuQ'
p67
I6995
sS'basketball_moves_15_killer_crossover_moves__make_em_fall_N8jW3gGJnRQ'
p68
I8143
sS'hyacinth_macaw_teasing_the_yorkies_-Mv-7yuvr68'
p69
I6437
sS'top_3_bear_special_newyear_compilation_SXWLPoGx7Tk'
p70
I4928
sS'funny_dogs_2015__best_videos_funny_dog_compilation_2015__top_funny_animals_videos_P4dG3Oq5BsM'
p71
I5649
sS'agujeta_piquicorta__limnodromus_griseus__shortbilled_dowitcher_05j7UnC4E3M'
p72
I3952
sS'gopro_minnesota_zoo_adventure_NJGNJHVBf2E'
p73
I2433
sS'biggest_beach_ball_youve_ever_seen_5AbEMraJmyA'
p74
I8365
sS'wrestling_a_grizzly_bear_in_my_garden_9nSWc43TLaI'
p75
I7235
sS'wow_guitar_playing_parrot__funny_pet_bird_cockatoo_video_EK9aYoDkKig'
p76
I449
sS'living_with_google_glass_day_four__engadget_MC32fE5gYBI'
p77
I1068
sS'dogs_welcoming_soldiers_home_compilation_2012_hd_RKBcs9tNWg8'
p78
I2235
sS'watch_dogs__e3_2013_trailer_L2qK6MXjLmA'
p79
I4814
sS'funny_kangaroo_compilation_2014_PDi91saMKn0'
p80
I7976
sS'walking_on_the_edge__gopro_SHyb65DH7Vc'
p81
I6239
sS'snowmobile_crash_compilation_part_1_ovsZRmOBrl8'
p82
I5058
sS'gopro_jogging_1neCgMBvUZk'
p83
I3405
sS'all_dogs_go_to_heaven__you_cant_keep_a_good_dog_down_LLbVI44FA6Q'
p84
I3006
sS'amazing_super_dog_vs_mud_truck_UoqU-YGaRlU'
p85
I4958
sS'snowmobile_lift_system_the_very_simple_homemade_way_DisCYKKwTGA'
p86
I5844
sS'my_life_horse_riding_iHbzju0i12o'
p87
I4174
sS'cute_babies_and_dogs_playing_together__funny_baby__dog_compilation_rvyrGEzE-lI'
p88
I8246
sS'why_dogs_are_better_than_cats_MAyciYKv1ms'
p89
I499
sS'meerkat_vs_periscope_livestreaming_apps__tech_bet__cnbc_u6pxz6B7Uos'
p90
I4623
sS'new_conservation_project_reveals_amazing_turtles_eyeview__of_the_great_barrier_reef_2I6hDqCrI9o'
p91
I2430
sS'playing_with_angry_birds_JL-0v1KwagY'
p92
I6757
sS'gopro_lunch_linemov_PnSgTMMLHs8'
p93
I4836
sS'best_basketball_vine_compilation_2013_40_vines__Gz8E7CipdTc'
p94
I6223
sS'emu_defends_me_against_attacking_ostrich_BKK4PcoVkt4'
p95
I5026
sS'what_dogs_think_about_EDNvK3MYdOc'
p96
I4342
sS'raw_obama_plays_soccer_with_japanese_robot_ag2vk6coBpI'
p97
I940
sS'up_close__gopro_with_central_florida_zoos_new_giraffes_7n9HqGxN-6k'
p98
I5467
sS'polar_bears_smash_the_spy_cams__polar_bear_spy_on_the_ice__bbc_one_DvduCPXO_FE'
p99
I2379
sS'cute_dogs_and_adorable_babies_compilation_ilMzs1UHEmw'
p100
I5272
sS'cute_pets_rabbit_playing_with_guinea_pig_uiSzoN7gu7o'
p101
I2183
sS'driving_dog_prank__just_for_laughs_gags_3Ueg7Q7hO7U'
p102
I3803
sS'eu_lcs_players_go_offline_to_play_some_football_aka_soccer___s4_eu_lcs_GDgRJWi0o-M'
p103
I5520
sS'cgi_vfx_breakdown_hd_riding_a_digital_bear__by_fido_HRlaBMPVtxQ'
p104
I6384
sS'turtle_remix_compilation_mcp9Q7zYm9U'
p105
I8014
sS'gopro_hero4_walking_along_street_shops_in_bangkok_sukhumvit_soi_9_to_7_b9eBSWzOoiY'
p106
I218
sS'cut_140604_myungsoo_playing_guitar_and_singing_can_you_smile_N8T7RDie-sM'
p107
I5401
sS'shortbilled_dowitcher__lodmoor_080912_x47s3BUEL3k'
p108
I4219
sS'amazing_animal_trick_dog_singing_and_playing_the_piano_UEdnZDBu65M'
p109
I446
sS'dog_vs_balloons_CoiFGva_JoY'
p110
I4314
sS'what_is_it_like_wearing_google_glass_on_a_motorcycle__jerryrigeverything_NFq0TYgeB_k'
p111
I5873
sS'jogging_with_the_gopro_9VAiOSqkp5o'
p112
I6001
sS'out_to_lunch_ep_1_rush_swims_Bi4mFyPmoLw'
p113
I3969
sS'bear_kills_deer_in_residential_neighborhood_Fg9_ZnojxmU'
p114
I8221
sS'periscope__hottest_day_of_the_year_lOtP2xNL2-0'
p115
I6804
sS'red_pandas_are_having_snow_much_fun__cincinnati_zoo_DSehQsYU9h4'
p116
I6886
sS'newport_beach_photographer__google_glass_explorer__dentist_appointment__anesthesia_McH-TVbo214'
p117
I4358
sS'gopro_lunch_timelapse_Jg03TTlrbJY'
p118
I5179
sS'dog_fight_pit_bull_owner_sues_family_for_1m_dollars_after_her_dogs_killed_their_beagle_sYJf_m0qDiw'
p119
I6546
sS'kobe_bryant_plays_soccer_u-vxaWF5aZs'
p120
I5854
sS'david_suzuki_participates_in_totem_pole_raising_ceremony_in_haida_gwaii_the_sacred_balance_excerpt_9p64LWW85fA'
p121
I112
sS'ninja_kitten_smile____lJp30XpK3PA'
p122
I3673
sS'spiderman_plays_basketball__spiderman_basketball_jukes_iJ4WmpVd2i8'
p123
I8380
sS'david_brent_interviews_nigel_pearson__funny__ostrich_ostrichgate_G0uEyJSs-Us'
p124
I1352
sS'rabbits_playing_in_the_snow_X-T4U4BGF2A'
p125
I5556
sS'taylor_swift_and_zac_efron_sing_a_duet_d8kCTPPwfpM'
p126
I8381
sS'gopro_yamaha_jog_rr_50cc_EUl0js3rJqo'
p127
I3518
sS'yamingshan_family_lunch_kids_gathering_filmed_by_the_kids_gopro_hero4_black_2xJZ9LVZ8VM'
p128
I6476
sS'dog_play_piano_and_sing_let_it_go_MT6rtLm-SRw'
p129
I4145
sS'most_funny_talking_dog_videos_compilation_2014_new_hiMjgLaN9cY'
p130
I764
sS'shortbilled_dowitcher_at_lodmoor_rspb_dorset_o9hUfQiQY4k'
p131
I7927
sS'first_time_playing_flappy_bird_fAP8booMSXY'
p132
I5432
sS'recorded_through_google_glass_a_very_happy_dog_VrYKLmQ-FYI'
p133
I6358
sS'jogging_with_gopro_hero_3_black_edition_10ae7ZtoboQ'
p134
I4243
sS'teenager_throwing_beach_ball_at_kids_2_umTOKBAxtqc'
p135
I8170
sS'hd_polar_bear_on_thin_ice__natures_great_events_the_great_melt__bbc_one_Kv9v9ALV3yk'
p136
I3219
sS'serval_smacks_gopro_10_feet_in_air__cincinnati_zoo_qiBqJR6QtfA'
p137
I4678
sS'waving_bears_olympic_wildlife_farm_img_0410_HJexN_ok5qw'
p138
I6382
sS'boxing_with_google_glass_on_venice_beach_while_filming_the_tech_trek_NJeUJPF8Gxg'
p139
I3276
sS'gopro_driving_tour_of_moshi_tanzania_africa_5gqw3HDLtA0'
p140
I1623
sS'macaw_baby_hatching_08222011_u7LVQtG7_Pk'
p141
I7514
sS'paw_patrol_lookout_playset_by_nickelodeon_with_police_dog_chase_tower__disney_pixar_cars_TLRklOUE07A'
p142
I7814
sS'totem_poles__talking_trees_whw6tfNStTM'
p143
I2867
sS'how_to_be_better_at_flappy_bird_UobKp2qNyy4'
p144
I8033
sS'my_cat_tried_to_sneak_some_food_eC_AR3FwD0U'
p145
I4196
sS'really_funny_waving_bears_compilation_pfdu_gTry8E'
p146
I1426
sS'greater_birdofparadise_KIYkpwyKEhY'
p147
I3420
sS'periscope_2__drawing_with_marek__how_to_draw_a_dog_PxtB7Vyu_us'
p148
I4947
sS'slalom_water_skiing_tricks_hot_dog_with_pro_tony_klarich_opening_montage_7r9jpnFdUl8'
p149
I2339
sS'best_game_of_horse_MkyjgFjgQls'
p150
I4521
sS'dogs_on_trampolines_compilation_5xcwij-yN8Y'
p151
I5216
sS'high_jumping_hydro_skies_over_80__xtreme_stunt_dog_z-rGBlxeeWg'
p152
I1816
sS'monster_truck_dog_pnBieUM1JFU'
p153
I3854
sS'cute_overload_two_year_old_cuddles_up_to_baby_kangaroo_J7nIzLc6P3k'
p154
I868
sS'1st_bike_ride_with_google_glass_marin_watershed_MUtfMl_rHmk'
p155
I2714
sS'bear_man_of_finland_has_an_unbreakable_bond_with_brown_bears_RI_f0buRi2c'
p156
I2902
sS'disney_wonder_cruise_ship_gopro_lap_on_the_jogging_track_rcS0_w0TGr8'
p157
I5735
sS'funny_westie_dogs_play_in_snow__lFYiabmqJ4'
p158
I1433
sS'bear_waving_hello_Q5Mlyi6wFmM'
p159
I5348
sS'snowmobile_fail__accident_ft_super_mario_DJxLSm41hUk'
p160
I5778
sS'cap_1_bird_bath_wshh_exclusive__official_music_video_nBJgQvlJhms'
p161
I68
sS'ostrich_thing_with_the_balls_joW5PEznxRM'
p162
I7397
sS'dog_tested_dog_approved_mail_truck_splA4c8iA6I'
p163
I315
sS'long_billed_dowitcher______limnodromus_scolopaceus_zH-Ple4wb4M'
p164
I372
sS'totem_pole_pat_pend_vs_standard_thule_4bike_carrier__wwwuprightdesignscom_-Isr8vojxgw'
p165
I7214
sS'the_real_macaw_trailer__guImBVpkeA'
p166
I7357
sS'ski_biking_snow_biking_keystone_colorado_through_google_glass_k7odf4BpSHo'
p167
I7159
sS'outside_duo_feat_zebra__just_playing_ms8paxU51ZM'
p168
I6202
sS'overboard_maverick_dog_jumps_on_dolphins_really_funnymust_see_IP5Gaticbc4'
p169
I8547
sS'surfing_singing_and_playing_guitar_all_at_once_official_video_V0DQWyb2Wig'
p170
I4586
sS'periscopefremont_street_darkside_PiPL6aK_9wE'
p171
I5829
sS'baby_sheep_playing_WW5jPEnHhcc'
p172
I6211
sS'waving_bear_r9bZMZw7aVQ'
p173
I5893
sS'iron__wine__flightless_bird_american_mouth_con_letra_y_subtitulada_SUjJQ25Ahko'
p174
I7815
sS'naughty_dog_throws_away_8_months_of_uncharted_4_work__bg_news_update_rhuRb6YzpX0'
p175
I5883
sS'crow_playing_with_snow_snowboarding_crow_tUBMSnHH7hc'
p176
I1429
sS'gopro_hero_4_hd_4k_jogging_f8F0cUtrEww'
p177
I5261
sS'amazing_crazy_gopro_walking_handstand_cool_pov__mathieu_bolillo_SZBkdklvClI'
p178
I3241
sS'horse_breeding_3__belgian_draft_horse_mating_6Q3_52t8eFI'
p179
I4274
sS'cats_playing_in_snow_compilation_DLjnKcX8gvo'
p180
I6023
sS'flappy_bird_t29Pr09pfXc'
p181
I199
sS'top_10_biggest_guard_dogs_in_the_world__caucasia__kangal__rotweiler_pitbull__rKewWoHuHcg'
p182
I3276
sS'john_mayer_on_periscope_dog_talk_5W9FUHwEBdk'
p183
I6064
sS'real_boxing_kangaroo_funny_BPMo-ao8Zi4'
p184
I5087
sS'gopro__life_at_the_zoo_B4f-tTdtkIQ'
p185
I5107
sS'twin_babies_playing_with_balloons_yrmn_jcoYOc'
p186
I7253
sS'myrtle_beach_sling_shot__google_glass_h1F_IL6luv8'
p187
I5144
sS'waving_bear_smiles_dQwZSlovf1I'
p188
I3268
sS'mercuryfilled_water_balloon___science_7HPxeASxXW0'
p189
I6526
sS'best_funny_and_cute_dog_videos_compilation_2014_NyFBbQrNLjA'
p190
I3866
sS'buttermilk_plays_with_her_friends_5IuRzJRrRpQ'
p191
I2392
sS'google_glass_from_a_dogs_point_of_view_WHdQ0DaCBrw'
p192
I2196
sS'incredible_footage_of_bbc_cameraman_and_hungry_polar_bear_BIql1ZpHovs'
p193
I8836
sS'lunch_break__gopro_go_skate_it__a_dhfreeride_short_6-3cdVBPbrY'
p194
I532
sS'my_cat_is_shy_on_periscope_Z1LnBDwB4N8'
p195
I728
sS'tiny_horse_cute_steed_suffers_from_dwarfism_7abf2Vyesrs'
p196
I4914
sS'dolphin_and_dog_playing_xcuLwrqN7SQ'
p197
I7806
sS'dangerous_dog_play_what_is_too_rough_O8MUbmaains'
p198
I2011
sS'totem_poles_are_stupid_RN4Zk7sUR_A'
p199
I2425
sS'living_with_tigers_family_share_home_with_pet_tigers_xwidefc2wpc'
p200
I4937
sS'periscope__mA4XNhoym4'
p201
I5977
sS'munchkin_cat_pops_water_balloons_MSkDGa9Ei4U'
p202
I6334
sS'wwt_slimbridge_longbilled_dowitcher_8cvunBaS_HM'
p203
I8307
sS'amazing_jam_session__three_random_guys_sing_together_cUFVR5sgbt0'
p204
I5203
sS'twitter_launches_live_video_streaming_app_periscope_rN3_Frw5OpE'
p205
I7190
sS'brown_bear_attack_0ThZ8dc2B8E'
p206
I2065
sS'gopro_out_to_lunch_ep_2_spirit_huckfest_with_rush_sturges__ben_marr_uotTDFXvjAU'
p207
I84
sS'at_the_apple_store_lincoln_road_miami_beach_with_google_glass_E4FiMtWj7io'
p208
I7872
sS'how_to_mount_a_horse_bareback_SWIRvEb1GgE'
p209
I5135
sS'rabbit_playing_with_balloon_funny_vidio_E5Z4iUcqs2A'
p210
I7352
sS'best_basketball_vines_compilation_vol_2_Ekt0gHCZg6k'
p211
I6728
sS'google_glass_catching_a_fish_on_a_beach_on_the_gulf_of_mexico_in_marco_island_fl__rfThJt6ORs'
p212
I2038
sS'hopping_sheep_plays_tag_with_a_dog__9yl3g_enAw'
p213
I5400
sS'playdoh_snow_cones_popsicle_rainbow_colors_yummy_treats_and_more__iOdTadkrxQ'
p214
I6694
sS'funny__rabbit_playing_with_cat_O25AHYHsIR0'
p215
I6937
sS'periscope_east_grinstead_high_street_mWhNhRhKBAc'
p216
I638
sS'biking_nyc_bridges_with_google_glass_VcQYLaCaFLw'
p217
I4770
sS'ostrich_attacks_kid_video_8LLly-L77kw'
p218
I5553
sS'talking_macaw_-f3Wxn75smM'
p219
I501
sS'whats_it_like_having_2_macaws_in_one_house_KdWpjemchG8'
p220
I520
sS'how_to_play_defense_in_soccer_XbdedDgzEsQ'
p221
I3687
sS'orphaned_baby_rhino_and_goat_are_best_friends_youtube_vide_new_zzqbHZNfW_c'
p222
I1674
sS'its_all_about_the_stripes_welcome_baby_zebra_UkvwA1cfBCo'
p223
I8486
sS'gopro_polar_bears__the_quest_for_sea_ice_hYM4ndcV4Uo'
p224
I7923
sS'new_robot_dog_jump_testing_may_2015_OdBJNhhBlmE'
p225
I3877
sS'hyacinth_macaw_ZFGGfucMUEc'
p226
I6958
sS'worlds_fattest_dogs_top_5_WPMDS4l1RKw'
p227
I2799
sS'kid_gets_hit_by_beachball_NGzRK1BFneU'
p228
I8800
sS'my_horse_riding_morning_routine_vN7tODbND2s'
p229
I5090
sS'frankie_eats_lunch_gopro_timelapse_zncpmVRBoqw'
p230
I7220
sS'impressive_jumping_pitbull__climbing_wall_YLS8CVBYCvM'
p231
I8308
sS'why_cant_every_city_be_portland__cat_music_video__the_doubleclicks_n6-P89qG9GY'
p232
I6157
sS'periscope__free_kick_against_cheating_dog_GCOgp6mxVEg'
p233
I5319
sS'how_to_play_acoustic_guitar__lessons_for_beginners__strumming_chords_pt_1_Ndg0sJ2dXUM'
p234
I7829
sS'right_this_minute_tv_showchop_with_chrisdog_sled_31AGEcXQBbA'
p235
I1316
sS'gopro_walking_on_penang_national_park__malaysia_trip_T5tU_C_g21A'
p236
I2065
sS'the_balloon_show_for_learning_colors__childrens_educational_video_belCJJjut1A'
p237
I7133
sS'cheetah__zebra_playing_together__epic_peace_k5MoLPYWFYk'
p238
I7325
sS'playing_ball_QqLU-o7N7Kw'
p239
I2113
sS'amazing_transformation_of_rescued_street_dog_dying_from_mange_-5cNwv2nI34'
p240
I995
sS'horse_and_zebra_play_fighting_XnJvHFJ-RGI'
p241
I3947
sS'lunch_break_gopro_jplgUdeL020'
p242
I5856
sS'spectacled_bear_waving_BJ0lywFb6qc'
p243
I234
sS'flappy_bird_ruined_my_life_f49tDCYP6yk'
p244
I532
sS'gopro_lunch_at_surfcamp_eAlxXhNme_k'
p245
I5021
sS'black_veil_brides__andy_playing_guitar__cover_funny__danzig__sub_espaol_CDDxczXkNJM'
p246
I8518
sS'merome_plays_in_the_snow_bajancanadian_loves_jeromeasf_Wz4YsaDSEcA'
p247
I5707
sS'waving_bear_makes_an_amazing_catch__funniest_bear_video_Mde4Asp66iM'
p248
I5624
sS'how_to_stop_your_dog_jumping_up_7mPqr4rDxCQ'
p249
I5452
sS'cute_bunny_cooper_plays_dead_rabbit_video_My0IwSEn_Kg'
p250
I4915
sS'gopro_man_fights_off_great_white_shark_in_sydney_harbour_-m3N_BnVdOI'
p251
I3831
sS'angry_birds_vs_flappy_bird___3d_animated__game_mashup___funvideotv__style__OuXtk4GaTeQ'
p252
I7098
sS'cookie_monster_eats_birthday_balloons_from_monkey__playing_with_toys_f105QW8bTkA'
p253
I6850
sS'early_birds_vs_night_owls_BPJ0729NVjw'
p254
I7627
sS'bruiser_bear_I-yqvT8vKZc'
p255
I8029
sS'worlds_largest_gummy_bear_HBa458RoLpw'
p256
I6998
sS'susanfinch_on_periscope_black_lab_test_vPreUXj8elI'
p257
I7235
sS'wrr27_riding_the_ice_bear_mad_dog__merry_christmas_y1SI0Eam0iU'
p258
I6399
sS'epic_exercise_ball_fails__failarmy_7-RRVdEhm_o'
p259
I4161
sS'longbilled_dowitcher_at_lodmoor_8ZThL2iY5Tw'
p260
I4302
sS'dog_jacks_kids_sled_original_2L2ZVjeLS3g'
p261
I6121
sS'subaru_dog_tested_road_trip_convenience_store_VDut1RkQP_s'
p262
I4277
sS'my_chemical_romance_on_tour_bus_and_playing_guitar_hero_N1f4uUj01HE'
p263
I6992
sS'ice_bear_maddog_gy6_ruckus_replica_review_FrXyf87cLmQ'
p264
I1637
sS'grizzly_bear_encounter_He7RsjcRiGM'
p265
I5937
sS'airwheel_x3_with_gopro__best_way_to_get_to_lunch_kqA7LGyP9ZU'
p266
I7884
sS'google_glass_biking_moran_state_park_tH9uNLRbSZs'
p267
I3111
sS'one_direction_play_with_helium_balloonsflv_9FNXv9EqvDI'
p268
I5704
sS'brolly_periscope_edinburgh_festival_fringe_fancies_2010_VWKcaMaYcAQ'
p269
I657
sS'rescuing_a_homeless_senior_dog_from_a_water_treatment_facility__please_share_5e_cr7tbc7w'
p270
I5885
sS'capital_cities_and_fitz_and_the_tantrums___kangaroo_league_nkIVjw7lZoA'
p271
I3968
sS'hehehe_bird_-_v7X9tWO5s'
p272
I696
sS'google_glass_muscle_beach_rope_climb_throughglass_Ff8a4yR4g-o'
p273
I3867
sS'ski_best_jumps__ski_tricks__freestyle_skiing__freeskiing__extreme_sports_2015__eeCoNywb45U'
p274
I3670
sS'imagenes_de_pole_bear_pqbTuAp8ziQ'
p275
I51
sS'tvppiu__singing_with_guitar_______come_to_play__YSG0pYcIw0'
p276
I2278
sS'walking_around_gangnamshillim_with_gopro_hero_3_black_chest_mount_harness_zyIcDxbkfl8'
p277
I5043
sS'beach_ball_tantrum_oa6znlKBFAg'
p278
I4451
sS'fred_the_footballplaying_sheep_from_new_zealand_GIbbiBlRBFE'
p279
I3831
sS'peppa_pig_eating_playdoh_pizza_gardening_together_zoe_zebra_toy_alltoycollector_obl3d-fQxYk'
p280
I7269
sS'flappy_bird__high_score_999_impossible_YHH2101OFfI'
p281
I4047
sS'blue__gold_macaw_loves_to_be_vacuumed_xRbC6ePUHUg'
p282
I692
sS'dog_facts_vs_cat_facts_BkV5fvdquXw'
p283
I6722
sS'top_5_soccer_goals_20122013__sick_goals__hd_Oo3f1MaYyD8'
p284
I5840
sS'monster_jam_dog_truckmov_-pfQ1L1Wk-E'
p285
I1005
sS'bird_sings_to_dog_during_lunch__meal_time_serenade_TbfJXsMPVSk'
p286
I920
sS'just_dance_kids_2__the_gummy_bear_song_wii_rip_5hn61z3FlMQ'
p287
I1040
sS'amazing_ski_tricks__mini_edit__go_pro_hero_2_hd_fJOYcjBNM6c'
p288
I1890
sS'top_10_snowmobile_crashes_and_fails_VxB09BIoVCY'
p289
I3696
sS'giraffe_and_zebra_play_fight_OAV8PB-om_U'
p290
I7117
sS'rocket_the_goat_playing_peek_a_goat_1azLzLxYluY'
p291
I7238
sS'gopro_driving_YnDUI84-maw'
p292
I543
sS'atv_news_worlds_best_corn_dog_truck_3pomxHnr8DA'
p293
I6382
sS'horse_jumping_simulator_L0HpOXBeF_4'
p294
I2858
sS'short_billed_dowitcher_uty43B5lp6k'
p295
I3126
sS'hiking_the_austrian_alps__gopro_edit_D9QwdSSA6GM'
p296
I7869
sS'gopro_captures_samar_cobras_hatching_at_dallas_zoo_PzYkDJaqUg4'
p297
I7512
sS'bomb_bird_stars_in_angry_birds_update__short_fuse_Dv54QkH6ocg'
p298
I2644
sS'hitler_plays_flappy_bird_LlgSU5vWW-Y'
p299
I5163
sS'kangaroo_and_dog_showing_their_love_for_each_other__amazing_Isn1Ym4fzag'
p300
I5427
sS'lamborghini_huracan_vs_snowmobileand_huskies_A2W8MWLw8mI'
p301
I8357
sS'places_to_mount_while_driving_gopro_mounting_tips_and_tricks_p5A7zHGluG0'
p302
I5577
sS'puriums_cracked_cell_chlorella__event_our_cat_loves_it_lxjF-iJboLc'
p303
I7741
sS'amazing_singer_at_covent_garden__london__rob_falsini__chasing_cars_snow_patrol_edHwDnyoFWw'
p304
I7608
sS'the_talk__carrie_underwoods_dogs_accidentally_locked_her_baby_inside_her_car_4jGnBqbXRlM'
p305
I6750
sS'snowmobile_grass_wheelies_NGyGFYOB1Ko'
p306
I2676
sS'catzooka__cat_launcher_fm0KmBXgaFg'
p307
I1955
sS'icebear_maddog_ruckus_clone_custom_modded_gy6_usQCaXhK5Og'
p308
I114
sS'zebra_playing_G16fmAfdp9A'
p309
I7400
sS'nyc_bike_ride_via_google_glass_hf2sQVyAEQY'
p310
I8685
sS'extreme_slalom_water_skiing_tricks_front_flip_with_tony_klarich_V8Gh-A_v_Gw'
p311
I8009
sS'baby_dances_to_his_dads_guitar_playing_kFTmw8XsufU'
p312
I6525
sS'biking_through_google_glass_aU5e3kuXkEI'
p313
I285
sS'gazza_vs_ostrich_4e7HYxEBxBQ'
p314
I5875
sS'cats_and_dogs_meeting_babies_for_the_first_time__cute_animal_compilation_YB2WHOtmSHQ'
p315
I6380
sS'bad_dog_3_z3Uuzff4I'
p316
I4423
sS'meet_camaro__our_21_year_old_blue__gold_macaw_muWQpUahYM0'
p317
I5367
sS'duracell_commercial_the_teddy_bear_mQaeXWtvprM'
p318
I2817
sS'crazy_cute_baby_lamb_playing_and_jumping_have_a_lot_of_fun_GF6srBYEaCo'
p319
I1268
sS'sled_dogs_more_than_meets_the_eye_6nVfFNbxX7s'
p320
I5720
sS'how_to_play_snow_hey_oh_riff_by_red_hot_chili_peppers_o7vWiJvgYQg'
p321
I4731
sS'sled_dogs_inline_snowskates_explained_hz-Vg9ojswI'
p322
I6105
sS'google_glass__rollerblading_on_venice_beach_tYQSomHt7Ig'
p323
I2031
sS'nepal_gopro_walking_through_devastated_kathmandu_bPD-fCuEOj4'
p324
I7715
sS'face_team_basketball_acrobatics__britains_got_talent_2012_audition__international_version_oHbeguUPmVE'
p325
I7637
sS'cutewinfail_dog_sled_hSrirDNwEVM'
p326
I1327
sS'magic_kingdom_railway_ride_from_fantasyland_to_main_street_usa_8emOH7TYyfQ'
p327
I428
sS'cat_and_macaw_get_along_VqWHGmcSnFw'
p328
I7396
sS'hackhd_vs_gopro_while_driving_in_the_day_1080p_hd_comparison_video_0_xHYvxSH0Q'
p329
I1064
sS'super_dog_can_do_all_house_work__amazing_8OIR1Pu2t4o'
p330
I7729
sS'dog_with_muzzle_taped_shut_saved_by_good_samaritan_bOdZvJCqmK8'
p331
I5018
sS'amazing_pettiger_is_playing_with_man_amazing_lol_apmmaex9hgM'
p332
I7428
sS'one_week_old_baby_goats_playing_YjyFdT-N7Z4'
p333
I5175
sS'play_doh_disney_princess_barbie_snow_white_princess_dress_gown_from_playdoh_on_barbie_Wfoc2BRZxJQ'
p334
I240
sS'gopro_hero_bootleg_hd__runningjogging_to_the_gulf_course_in_tampa_florida_ywanklo7Taw'
p335
I6753
sS'how_to_play_soccer__how_to_juggle_a_soccer_ball_T_FI8nIn9YE'
p336
I8135
sS'go_periscope__chick_flick_tears_U9yWLppLIGA'
p337
I4238
sS'dog_with_a_blog__truck_stops_here_song_CWJsuT3Hdro'
p338
I3526
sS'catnip__simons_cat_a_christmas_special_UhQ9HquDNEM'
p339
I5179
sS'rabbit_playing_with_dog__in_memory_of_two_wonderful_pets_jp_UsR1J0VY'
p340
I1664
sS'vw_scirocco_rline_20_tdi_184bhp_pov_test_drive_gopro_F5yxIO3PtJs'
p341
I28
sS'myrtle_beach_slingshot_through_google_glass_Kvcq7K6Kh5g'
p342
I7512
sS'day_1_wrap_for_pepper_the_movie__google_glass_explorer__newport_beach_photographer_CqfwMJ_w3c8'
p343
I8211
sS'timelapse_gopro_while_driving_-7pp5UfOTJA'
p344
I61
sS'explorer_interrupts_mating_tortoises_slowest_chase_ever_ensues_RjtCS0EEoCY'
p345
I897
sS'zoosafari_fasanolandia_drone_video_zoo_gopro_FW-n7jrsJn0'
p346
I5149
sS'jogging_along_the_canal_with_gopro_9MRhtgIuGt8'
p347
I7214
sS'periscope_app_cool_creepy_or_too_many_fridges_-S6aKgnZgFI'
p348
I2351
sS'horse_riding__show_jumping_girl__glidecam_hd_2000_F1o-XZcMLXo'
p349
I1041
sS'girl_bouncing_on_yellow_beach_ball_4q7OmdAEzCo'
p350
I7841
sS'lego_pim_in_dog_sled_p0MFIgwM7GA'
p351
I5267
sS'ciahow_to_stop_a_dog_from_jumping_on_people_in_less_than_60_secondsm4v_OYzf2x-TP78'
p352
I2503
sS'what_it_takes_to_play_soccer_like_a_girl_FTCsULdBMv4'
p353
I338
sS'masha_and_the_bear__christmas_song_one_two_three_light_the_chistmas_tree_b2TNo4A7QNA'
p354
I1518
sS'best_basketball_vines_compilation_vol_9_2v3O-jh9PQk'
p355
I482
sS'baby_kangaroo_swimming_at_the_beach_gFEB1VyvZEA'
p356
I2248
sS'if_i_had_google_glass_dog_glass_tYgnWiOTsQI'
p357
I5540
sS'goat_plays_dead_when_scaredlol_IA4PyWuDMps'
p358
I3191
sS'100_mile_wilderness_sled_dog_race_Qv4I_MDX7ws'
p359
I8424
sS'kids_fighting_over_beach_ball_YxxY26hN2yE'
p360
I6460
sS'memorable_moment_playing_golf_with_tiger_woods_dBVJ1UiuUxI'
p361
I7377
sS'beach_volleyball_through_glass_bpfak_VIJ8o'
p362
I1685
sS'the_vow_soundtrack__leo_playing_guitarfrom_movie_WD-OqOlsBB0'
p363
I7538
sS'cat_logic_K3p0EFtJIn8'
p364
I6775
sS'periscope_dnya_elizabeth_banks_monday_hike_get_up_get_outside_get_into_nature_shes_so_cute_fQYFutCKwA8'
p365
I7020
sS'giant_inflatable_beach_ball_from_thinkgeek_-An_27pWfFA'
p366
I5044
sS'cute_baby_goats_compilation__cfs_QL6Ws4i07is'
p367
I8583
sS'7_year_old_mini_band_guitarist_zoe_thomson_plays_sweet_child_o_mine_by_gun_n_roses_X4Kjtp4sA9E'
p368
I4252
sS'rabbit_playing_2ItuORiBeRI'
p369
I1510
sS'capital_cities__kangaroo_court_forever_kid_remix_p_Xv0mmPZJE'
p370
I5522
sS'stetson_rolling_in_the_snow__horse_playing_in_snow__AFkZdbuOcDo'
p371
I1460
sS'baby_playing_with_sheep_QjijH6HEnHo'
p372
I2625
sS'periscope_1_million_users_in_first_10_days__tech_bet__cnbc_Brh5Glz1yc8'
p373
I3280
sS'baby_zebrampg_FX68k6Isb38'
p374
I5627
sS'10_hours_of_walking_in_nyc_as_a_woman_b1XGPvbWn0A'
p375
I479
sS'bear_cub_rescued_by_raft_guide_from_river_after_struggling_for_days_d16Rc0XoLY4'
p376
I8601
sS'baby_chimp_tigers_and_wolf_playing_w4c-mJ1DR24'
p377
I2843
sS'spoiled_rabbit_growls_and_thumps_when_petting_stops_BWkmEhNYVF0'
p378
I8947
sS'south_beach_with_google_glass_2015_OWtINKEEshs'
p379
I3087
sS'spiderman_basketball_part_4_feat_captain_america_bUyXalMwcr4'
p380
I4102
sS'teenage_mutant_ninja_turtles_official_movie_clip__the_elevator_2014__ninja_turtle_movie_hd_CTcy51kHDTM'
p381
I7481
sS'graham_holmberg_and_the_new_rogue_dog_sled_bc3rgtYZnh0'
p382
I5792
sS'historic_totem_pole_documentation_sitka_national_historical_park_alaska_k5UaZVoytIM'
p383
I3317
sS'adorable_baby_lambs_5EbATpgZEMw'
p384
I4577
sS'cute_puppy_goat_compilation_0G5HMziQrYk'
p385
I5492
sS'jogging_with_gopro_hero3_black_edition_head_strap_WzBx-hMfRtc'
p386
I340
sS'the_rosie_meader_trio_playing_john_butlers_zebra_wf_oJwqyt3U'
p387
I7890
sS'florida_woman_keeps_bengal_tigers_in_her_garden_8pGTgkcP-RU'
p388
I509
sS'biking_with_google_glass_0uBKEGNbzic'
p389
I3489
sS'google_glass_west_haven_beach_endangered_birds_ZzMenRaTZEI'
p390
I6178
sS'turtle_flip_-tPdmbnw6bc'
p391
I4269
sS'cat_hug_Sjo-BLLqA3E'
p392
I4250
sS'how_to_draw_easy_things__kawaii_summer__beach_ball__fun2draw_cartoon_art_lessons_t2qoOawcyWs'
p393
I6386
sS'cheetah_savanna_and_dog_max_play_in_snow__cincinnati_zoo_l0rDeIOI54g'
p394
I3514
sS'texas_turkeys_play_soccer_super_funny_In5s7r6JQW0'
p395
I4516
sS'baby_kittens_playing_with_ballons__funniest_kitten_videos_kTRRpDeo3aM'
p396
I4910
sS'kodiak_bear_waving_MNWOesnAWyE'
p397
I6759
sS'gopro_driving_timelapse_test_05sec_1sec_2sec__5sec_interval_comparison_WMrcq0cTjeU'
p398
I7584
sS'macaw_in_the_shower_ieMyajkMEVo'
p399
I6759
sS'awesome_becca_and_her_dog_playing_GMBy6AjDEHk'
p400
I5506
sS'dozens_of_baby_goats__kids__jumping_yelling_and_playing__hd_footage_cVQUaecTlpU'
p401
I1818
sS'tiger_vs_dog_pack_igQRWZJklIo'
p402
I4635
sS'limnodromus_scolopaceus__long_billed_dowitcher_female__samutprakan_20121215_JNHZhPKORTo'
p403
I6597
sS'pygmy_goat_kid_playing_K3CWpT010Pc'
p404
I4136
sS'bluenose_pitbull_puppies_playing_with_balloons_iXInVGGsu_k'
p405
I5766
sS'creationist_cat_directors_commentary_for_get_your_mouth_away_from_my_dick_6DVB5d8vAWw'
p406
I6188
sS'kangaroo_fighting_or_is_it_kangaroo_boxing_in_the_ring_LP3qZhdmhGQ'
p407
I7654
sS'fort_worth_zoos_gibbons_check_out_the_gopro_yhUPHmxPhx8'
p408
I81
sS'dog_plays_piano_and_sings_xLrLlu6KDss'
p409
I1804
sS'millie_periscope_cat_fv3q6RUrGLk'
p410
I2268
sS'jerry_needs_no_help_playing_with_his_ball_4PcL6-mjRNk'
p411
I947
sS'best_dog_birthday_surprise_diy_ball_pit_for_maymo_1kgmfPClsZc'
p412
I3446
sS'monster_school_in_real_life_episode_5_basketball__minecraft_animation_jl_ihY3WdlQ'
p413
I453
sS'real_live_grizzly_bear_waving_at_us_AZ1OhFu9ttE'
p414
I7802
sS'brave_pet_cat_stands_up_to_mountain_lion__cute_cats_vs_mountain_lion_Vnmxg4h_Mio'
p415
I3201
sS'google_glass_biking_through_sonoma_county_dKUjuPXtdFw'
p416
I8472
sS'giant_bear_waves_and_says_hi_EOxtpjJ75S4'
p417
I6926
sS'a_man_playing_guitar_is_joined_by_two_strangers_in_an_impromptu_street_performance_CRH5U5XKb2Q'
p418
I8158
sS'basketball_wives_la__no_mercy_teaser__premieres_sunday_july_12__98c__vh1_jYTAlzE-Bcc'
p419
I791
sS'alvin_hall_ostrich_attack_P8QHw9lrMao'
p420
I7660
sS'ostrich_farmer_helen_wall_alden_iowa_e4vtz6dJR4U'
p421
I8273
sS'jeff_rides_an_ostrich_SEd8VhzCvDs'
p422
I2248
sS'extreme_waterskiing__tricks_on_a_ho_slalom_ski_qU_605hliNw'
p423
I7348
sS'bob_marley_playing_soccer_87WW1aCmVZA'
p424
I1013
sS'rip_flappy_bird__super_mario_plays_flappy_bird_9-gGvM_eb_A'
p425
I5306
sS'ronald_mcdonald_hates_flappy_bird_snsHiY3RFmk'
p426
I6888
sS'super_hero_soccer_tzajk7kciv4'
p427
I3182
sS'barbie_saddle_n_ride_horse_jump_and_ride_pony_barbie_doll_toy_review_by_disneycartoys_UCevdMtT9gM'
p428
I7835
sS'basketball_fails__funny_moments_elite_bloopers_vol_5_M-dwDf5pID8'
p429
I5273
sS'ostrich_beat_up_monkey_man_and_hyaena_i7QGu4UkGKo'
p430
I4517
sS'grizzly_bear_smashes_glass_at_zoo_exhibit_6EseIRmOJls'
p431
I666
sS'stephen_curry_pick_and_roll_split__nba_basketball_moves_dmlZKiuO2P8'
p432
I5855
sS'river_otters_playing_in_the_snow_I39g_GGKDYs'
p433
I6004
sS'baby_goat_playing_with_cat_7_f6p0XB3Nw'
p434
I5559
sS'how_to_tell_if_your_turtle_is_male_or_female_Zy_QWctnPj0'
p435
I7764
sS'horse_and_zebra_playing_river_flows_in_you_in_vienna_5mPZ-AjEg0w'
p436
I1635
sS'erika_lang__teenage_us_champion_trick_water_skier_z-MP3g269ac'
p437
I4991
sS'dewey_kids_beach_party__beach_ball_bounce_part_2_O2wlNCtLrGc'
p438
I8586
sS'ailiph_doepatotem_poleofficial_music_video_3SEz38nAykQ'
p439
I4131
sS'longbilled_dowitcher_limnodromus_scolopaceus_askviken_xAhmsdMsAKM'
p440
I2545
sS'dog_and_magpie_bird_playing_mqD9LWkaupQ'
p441
I2205
sS'tiger_cub_lion_cub_and_puppies_playing_XVSpMIxwgjc'
p442
I7279
sS'baby_rhinos_friend_skaap_the_sheep_Ay9Ca2u_f3I'
p443
I8060
sS'wild_google_glass_pov_on_skate_board__venice_beach_skate_park_37uMkGPaGEI'
p444
I5436
sS'epic_10000_water_balloon_fight_MPb9wrSSgPc'
p445
I3788
sS'ed_sheeran__sing__guitar_cover_XNU32tJNlg0'
p446
I6138
sS'petite_meller__icebear_ft_joe_fleisch_8_5rRstn2Hc'
p447
I1269
sS'snowmobile_sobriety_test__rocky_mountain_law_xUuHCP761JQ'
p448
I8530
sS'longbilled_dowitcher_14IKc6__CDA'
p449
I392
sS'beach_ball_1_kids_0__aP8fbcskLI'
p450
I6745
sS'worlds_deadliest__kangaroo_kickboxing_4F3ZDqLIw7c'
p451
I1066
sS'gopro_lunch_edit_ihAWXSurzrs'
p452
I2273
sS'cats_vs_balloon_explosion__funny_compilation_S9iqjRTlJ50'
p453
I5969
sS'gopro_elephant_lunch_break_cEWe42-HY_g'
p454
I5811
sS'rescued_baby_bird_returned_to_parents_lbbuxF4mCiQ'
p455
I1641
sS'periscope_cat_IHe5T9h5G50'
p456
I8046
sS'wild_sidetvalligator_snapping_turtles_WMYAkNuXnUE'
p457
I8152
sS'meet_the_pedi_scope_a_periscope_for_your_bike_c5iGBzHxxTI'
p458
I7910
sS'totem_pole_I1YvpCHyxeg'
p459
I765
sS'how_to_take_care_of_a_macaw__pet_bird_1oZ5Zw_CuhI'
p460
I8356
sS'kalle_kj_johansson_from_slednecks__snowmobile_river_stepup_YF-uuLFS6mU'
p461
I3058
sS'kitten_and_flemish_rabbit_friends_playing_vb9Zh480KpA'
p462
I7164
sS'turtle_and_shark_a_beautiful_underwater_world_YmaOzduN2qQ'
p463
I733
sS'excision__night_shine_ft_luciana_bear_grillz_remix_A_VWBkCA-e0'
p464
I5088
sS'long_billed_dowitcher_UNyzOu5nCnI'
p465
I2479
sS'abusing_a_fake_dog_in_public_social_experiment_yOaMYFmpuVo'
p466
I7651
sS'ferrets_playing_in_snowmov_pJQbbPqPHVE'
p467
I5693
sS'dowitcher_hunting_for_food_RBXL2mE9j0s'
p468
I8698
sS'i_got_horse_riding_lessons_for_my_bday_heres_lesson_1_Y3EQIZqutlc'
p469
I6033
sS'racing_my_macaw_parrot_at_kolimbithresparos_MnmZKNQZbwI'
p470
I2214
sS'the_beach_ball_prom_at_nemoursalfred_i_dupont_hospital_for_children_dPG9W7bKBfE'
p471
I5855
sS'snowmobile_races_vs_ferrari_458_and_f430_spider_in_drag_race__modball_rally_2015_H3Ragxvt-mU'
p472
I5238
sS'snowmobile_caught_speeding__125_kph_in_a_50_kph_zone_bTwEb76FzXY'
p473
I8566
sS'gopro_hd_hero__les_arcs_2011__part_3__lunch__snowpark_watch_in_hd_BjstRsVbeTI'
p474
I2408
sS'the_totem_pole_an_intercultural_history_VV0rPn2F6lk'
p475
I3576
sS'dog_grooming_in_vancouver_wa_filmed_with_google_glass_Tdw95-syb54'
p476
I1522
sS'flirty_donkey_and_a_zebra_19weoPgWiDw'
p477
I1240
sS'polar_bears_and_dogs_playing_JE-Nyt4Bmi8'
p478
I82
sS'unintelligible_empanada_truck_vs_dog__harmonizator_Hz7Oa8RpIpw'
p479
I6600
sS'waving_bear_plays_catch_with_sight_seeing_visitor_8K8HAFOVJg8'
p480
I2545
sS'minibike_with_snowmobile_motor_gbsB1UJopXc'
p481
I7044
sS'northstar_tahoe_mountain_biking__through_google_glass__chase_cam_c5SPovk-eFs'
p482
I3614
sS'spectacled_bear_waving_cE4dumT8nJQ'
p483
I2266
sS'cat_cant_handle_flower_-Z4jx5VMw8M'
p484
I4180
sS'shinemation__evil_totem_pole_animation_c1Z15EYi5L4'
p485
I8731
sS'gopro_zip_line_1000_feet_new_zoo_adventure_park_nQwBJUjk61M'
p486
I6070
sS'what_welshmen_do_when_theyre_bored_vGOGOxtN2lM'
p487
I8606
sS'gopro_arbys_fast_food_drive_thru_fast_motion_lunch_break_r12WnFppOm4'
p488
I7893
sS'kangaroo_survival_in_australia__bbc_wildlife_4DZnx1mGyq4'
p489
I7961
sS'boondockers_12_snowmobile_film_teaser_xm1HCfcmLXw'
p490
I6503
sS'clever_dog_plays_fetch_with_himself_vNvjtyUh2OM'
p491
I2091
sS'snowmobile_minibike_vs_super_mario_procart_ZKLaBisv6YE'
p492
I3097
sS'google_glass_bike_ride_to_the_fire_tower_buffalo_mountain_tn_2aCnOT_UlE4'
p493
I56
sS'jogging_gopro_hero3_black_edition_UceEtJ_qAX4'
p494
I21
sS'cute_baby_pygmy_goat_plays_with_dogs_62rkHYv6tB0'
p495
I8669
sS'gopro_revolving_timelapse_boxing_day_family_lunch_K2aRCcdXEaQ'
p496
I3947
sS'gopro_mix_april_13__driving_gilera_smt_50__husky_tesms4_qLJHcUt8vd4'
p497
I5493
sS'r3hab__revel_hq_beach_club_atlantic_city_through_google_glass_08112013_Pql5CxIumu8'
p498
I5199
sS'miniature_horse_hola_hoop_free_jumping_1itscrunchtime1_YlvMxF8-H_k'
p499
I1591
sS'cute_baby_zebra_coltcincinnati_zoo_ncMW41SLAl0'
p500
I7994
sS'dog_and_bird_play_and_fight_over_food_D914IPmDllA'
p501
I2840
sS'freeskiing_basic_rail_tricks_ZVezlEH_ids'
p502
I535
sS'ever_wonder_what_dogs_do_while_waiting_for_you_CNuAnYo55y0'
p503
I3537
sS'snow_tha_product__play_rEaYaa6Oljc'
p504
I5198
sS'sports_balls_song_for_kids__pancake_manor_EZXI7l3eaOs'
p505
I5222
sS'dog_jumping_into_a_pool_2_rxsad6gMkOI'
p506
I6215
sS'99_red_balloons__played_with_red_balloons_aZND9dApFKU'
p507
I2917
sS'70000_subscriber_thank_you_2bg_real_life_basketball_ep_5__game_of_horse_Qft3fOZjBgU'
p508
I2360
sS'purdy_the_rabbit_playing_football_PqiTbB-BLOU'
p509
I6066
sS'b2bill__peris_scope__a_modern_tribute_to_bill_evans__bexmorelliladd_2ApdURuwya0'
p510
I4584
sS'jatt22_episode_1_keep_keith_or_keep_turtle_ZAIfmW4sfgY'
p511
I3402
sS'sleeping_dogs_101_trailer_hd_720p_Ya-VGgmcl5M'
p512
I61
sS'games_for_children_67_year_olds_lesson_55_reaction_bounce_beachball_with_beachball_gikS_pr4bpM'
p513
I1888
sS'pet_the_lamb_playing_with_the_dogs_o8dLhySqMg4'
p514
I5483
sS'fence_jumping_dog_stopped_by_homemade_coyote_roller_ace_appetite_S1uCQdtJFIk'
p515
I3039
sS'brian_feeding_a_massive_kangaroo_kD_yUKB85HM'
p516
I1269
sS'sled_dog_adventures_ith_XxgR7JY'
p517
I6330
sS'billy__betty_beachball__dance_8VOlwHYgGe8'
p518
I1785
sS'interview_dominique_wilkins_on_larry_bird_the_dunk_contest_and_playing_against_mj_Qavnw2M2jPY'
p519
I8229
sS'200pound_ripped_kangaroo_crushes_metal_DFCvPrzj4BU'
p520
I8552
sS'gopro_bryan_bros__golf_trick_shots_part_2_Lw2ScBfcKpA'
p521
I3855
sS'long_billed_dowitcher_TvCd4yHRVPw'
p522
I3992
sS'rabbit_playing_fetch_BQezfT7ErCg'
p523
I8273
sS'george_bush_plays_goat_simulator_PR8VHHVbth0'
p524
I7248
sS'foot_locker_x_james_harden__horse_with_harden_challenge_recap_d3n_FY559aQ'
p525
I891
sS'jumping_like_a_horse_anna_salander_Xyv_sLHlM0k'
p526
I6038
sS'dancing_to_zebra_playing_whos_behind_the_door_outro_at_jazzfest_new_orleans_2012_7jzjRYkXUqw'
p527
I1675
sS'hello_kiniro_mosaic__the_totem_pole_song_MqS9YkNvaaQ'
p528
I6837
sS'dog_with_a_blog__g_hannelius_sings_the_truck_stops_here_on_will_sing_for_food_truck_ExTyODfJOyo'
p529
I1934
sS'truck__dog_reversing_t1TpHKepv34'
p530
I7881
sS'scu__milky_ice_bear_czqpoOlXJVs'
p531
I530
sS'2013_sti_gopro_driving__Z7kraJM6m0'
p532
I7834
sS'how_to_play_as_a_forwardwinger_in_soccer_2Da4_oCzVQ4'
p533
I1353
sS'bear_grylls_adventure_urban_skiers_take_their_tricks_to_the_streets_wFIZ5ni3EHw'
p534
I8978
sS'hero_cat_compilation__why_we_love_cats_LVoElgX2irI'
p535
I8310
sS'snow_tha_product__play_music_video_TKZ8aKbTw1M'
p536
I4754
sS'hairpainting_periscope_from_june_13_Il-E-J2jfy4'
p537
I7093
sS'an_ostrich_and_baby_giraffe_play_tag_rejDi1u31NI'
p538
I5776
sS'cat_wont_let_me_play_video_games_alone_SzqndXLTlFc'
p539
I4057
sS'me_singing_fireflies_by_owl_city_FmlhIFWlSYI'
p540
I5259
sS'water_torture_brown_bear_teases_dog_with_hosepipe_uUwNm9cCdaw'
p541
I6823
sS'crazy_dog_shower_u3DdQrejx10'
p542
I4835
sS'macaw_bird_park_pensacola_72113_s3JM1r2cWeY'
p543
I7536
sS'best_use_for_a_yoga_ball_according_to_my_goats_mu31o9zzHQs'
p544
I5806
sS'rachel_blue_and_gold_macaw__teaching_a_parrot_to_flight_recall_XaNavXN8HnM'
p545
I4706
sS'a_long_billed_dowitcher_QTvRamg_Hls'
p546
I8474
sS'goat_babies_in_pajamas_qfxUt9UM0nc'
p547
I3696
sS'bird_singing_dubstep_original_ZGhVXgMoz4g'
p548
I3746
sS'insanely_funny_snowmobile_crash_and_fail_complition_4vQNh9lxYgY'
p549
I2935
sS'nasa_water_balloons_in_zero_g_high_quality_gTqLQO3L4Ko'
p550
I4334
sS'pretty_little_liars_aria_singing__noel_guitar_episode_9_oto9Al-Jlv4'
p551
I6617
sS'tr_cool_singing_and_playing_guitar_oo_HmCDirPNA-s'
p552
I6905
sS'baby_kangaroo_joey_jumps_in_pouch__currumbin_wildlife_sanctuary_04kXgo6j_0U'
p553
I4732
sS'driving_around_with_gopro_3_in_mk6_gti_FaG9F32HXN8'
p554
I4904
sS'tiny_kitten_plays_with_samoyed_dog_hlRBd4sLhEc'
p555
I4507
sS'dogs_playing_on_roanhead_beach_through_google_glass_0Y3WENeeJ40'
p556
I6332
sS'kangaroo__cat_insane_ILRTLXfMAv4'
p557
I2143
sS'filipino_guitar_trio_singing_cover_of_bruno_marss_grenade_in_tagaytay_resto_n4vqqfLzYCc'
p558
I5180
sS'president_obama_plays_soccer_with_a_robot_O4ma1p4DK5A'
p559
I2168
sS'snowmobile_cop_stop_1hvxv-A8xSY'
p560
I8020
sS'how_to_properly_hold_a_snapping_turtle_jyS7dqNku1U'
p561
I2020
sS'rick_santorum_scotus_just_opened_the_door_to_man_on_dog_sex_7l5eFs9jLv4'
p562
I544
sS'meerkat_or_periscope_part_1_cardonezone__sneak_preview_erDF0fUW7NQ'
p563
I3479
sS'airsoft__ironman_totem_pole_pFEVDenFnzk'
p564
I6085
sS'periscope_video_dog_in_the_sun_12_may_2015_UcaBSrUTgRM'
p565
I7442
sS'jogging_at_botanical_garden_kl_featuring_gopro_hero3_xQ8TER0xQXU'
p566
I8695
sS'taylor_swift_and_zac_efron_sing_a_duet__the_ellen_degeneres_showflv_PIIThKbJFQc'
p567
I4465
sS'k9_classic_high_jumping_-vaUNnR9V_g'
p568
I1484
sS'lego_chima_70230_ice_bear_tribe_pack__lego_speed_build_ucbDSEaCKtc'
p569
I6531
sS'zebra_babies_playing_z05RSzJDUiM'
p570
I7524
sS'kids_playing_soccer_is_funny_QrFSNiJZoaQ'
p571
I3999
sS'azula_mai_zuko__ty_lee_beachball_scene_hd_2lv2cqH-Vcw'
p572
I3803
sS'gopro_dog_vs_mini_truck_FA8ba4GWCPI'
p573
I3022
sS'little_tikes_big_dog_truck_DtfP730Xr34'
p574
I4043
sS'how_fast_does_an_ostrich_runmov_1r-b8uY7C9E'
p575
I4344
sS'life_below_zero_sled_dogs_Nj1p02iE0t4'
p576
I8058
sS'whipsnade_zoo__gopro_hero3_black_edition_2EyJokIBvZc'
p577
I18
sS'my_periscope_central_park_nyc_adventure_tfV6T06V61I'
p578
I5449
sS'swedish_man_scares_the_living_shit_out_of_an_attacking_bear_TtC14cpwwXg'
p579
I1234
sS'ski_freestyle_the_coolest_tricks_1KM652DozPw'
p580
I6046
sS'you_should_get_a_second_cat_G4ECZR5WXNE'
p581
I1424
sS'dogs_playing_soccerfootball_compilation__cfs_plFCDMQLGpw'
p582
I7063
sS'cats_and_dogs_acting_like_humans__cute_animal_compilation_iZnnNek6kXw'
p583
I6164
sS'how_to_improve_your_control1st_touch_in_football__learn_to_play_soccer__strskillschool_Ul9wCaNjrkM'
p584
I8517
sS'swimming_tigers_at_australia_zoo_sMnK63ppBXU'
p585
I3089
sS'baby_turtle_eating_a_raspberry_vb11rZgfihc'
p586
I8073
sS'kangaroo_on_steroids_bg2YX0i3WMU'
p587
I520
sS'sheriff_man_traveled_to_arizona_to_have_sex_with_horse_t6IQaxkfRYo'
p588
I405
sS'tf2_how_to_play_cat_and_mouse_4_feat_sin_griefingfun_6VWvwZ3vBl8'
p589
I1635
sS'gopro_chimp_smashes_drone_wPidiiaovL4'
p590
I4605
sS'2_year_old_playing_bulls_on_parade_on_guitar_herothe_music_takes_over_bidW4aa-Z6M'
p591
I4589
sS'bullied_for_playing_guitar_until_they_found_out_who_he_was_playing_for_qH0xeBuaMq8'
p592
I2861
sS'how_to_fill_100_water_balloons_in_1_minute__today_Q0L5SAkgj98'
p593
I7520
sS'denver_the_guilty_dog_gives_the_mccheesy_Aw_1V1yguvE'
p594
I6869
sS'the_ice_bear_and_the_arctic_fox_dglKJ2woZ9w'
p595
I8214
sS'popping_water_balloons_on_our_trampoline__celebrating_5000_subscribers__bethany_g_-ry1NWTU3kU'
p596
I8164
sS'baby_goat_plays_with_huge_pig_ac-Ei73hzv4'
p597
I1124
sS'clutch_cargo__totem_pole_eskimo_FN0vMgE0t3o'
p598
I4636
sS'spaz_attacks_water_balloonsfull_version_bfRcx37Qp4U'
p599
I2777
sS'gruesome_moment_dead_zebra_sprays_leopard_with_blood_UF_i4UCvyB0'
p600
I4227
sS'5_horrifying_medical_procedures_w_sarah_drew__5facts_9uhnx93DIFY'
p601
I7843
sS'dog_rmi_gaillard_yfUflij74P4'
p602
I4612
sS'harry_irwin_playing_guitar__5sos__rowyso_sydney_GxOhY68NAlI'
p603
I3160
sS'swimming_cat___My1K9kC-sQg'
p604
I467
sS'osf_51112_horse_show_dog_jumping_XI-nqt3KdL8'
p605
I3789
sS'tiger_cub_playing_with_a_dog__ii_tigrinho_brincando_com_co_EdCVijVT7Wk'
p606
I5782
sS'south_african_zoo_visit_gopro_sjFSGqpKATY'
p607
I3060
sS'arrogant_sheep_playing_soccer_lol_1WzDeZBgVdc'
p608
I1678
sS'longbilled_dowitcher_wwt_llanelli_Ucy3ESuCuc4'
p609
I5584
sS'basketball_obstacle_course_challenge__wannaplay_with_shot_science_mHpH9BBS4j4'
p610
I3886
sS'scarlet_macaw_1_LrrP6D9SWL8'
p611
I3253
sS'dog_and_goat_playing_zsv5dJO2_MY'
p612
I7270
sS'totem_pole_march_eric_osterling_dbsIoJrooSU'
p613
I2121
sS'floyd_mayweather_vs_chris_brown_and_snoop_on_basketball_court_deontay_wilder_in_house_QSZUy3U89qI'
p614
I8190
sS'spoon_guitar_NCKTeRW3OhQ'
p615
I4641
sS'paul_pierce_plays_a_game_of_sprint_horse__basketball_city_nyc__pier_36_meLZYOdbIQ8'
p616
I3718
sS'sheep_teaches_young_bull_to_head_butt_terceira_azores_D02F9HeSQbg'
p617
I8012
sS'truck_and_dog_tipping_hUxOi9ah0f8'
p618
I4670
sS'nigel_pearson_goes_on_incredible_rant_at_ostrich_journalist_after_leicester_v_chelsea_GpAKLahuTzs'
p619
I6713
sS'funny_cat_waving_teddy_bear_8qgYpPgx5w8'
p620
I6135
sS'feeding_the_bear_bear_waves_ZTnjks3XErM'
p621
I3946
sS'dan_sartain_totem_pole_o6E7CwlZLW4'
p622
I4574
sS'how_to_play_soccer_soccer_positions__KoDgwznL8c'
p623
I111
sS'giant_kangaroo_stalks_australian_suburb_B272weCsBM0'
p624
I2008
sS'how_to_beat_flappy_bird_best_method_gD-nzHy2DdU'
p625
I5594
sS'dog_versus_deer_original_GnZSTkycovg'
p626
I2506
sS'nature__ravens__ravens_playing_in_snow__pbs_gjgpenWavO8'
p627
I4816
sS'native_american_totem_poles_JHGNnBqDCZc'
p628
I6262
sS'play_doh_peppa_pig_riding_bike_with_suzy_sheep_playing_in_playdough_muddy_puddles_peek_n_surprise_mNAE1-F_dKs'
p629
I5345
sS'worlds_top_10_most_dangerous_dog_breeds_9HefsnsdyOo'
p630
I931
sS'lunch_loops__gopro_test_-YPiOoFMmZw'
p631
I7630
sS'ice_bear__groove_zone_jGrAL-rPeMI'
p632
I1826
sS'best_basketball_vines_compilation_vol_17_fxXHsZhXysc'
p633
I4190
sS'crowboarding_russian_roofsurfin_bird_caught_on_tape_3dWw9GLcOeA'
p634
I6382
sS'turtle_troubles_in_the_er__untold_stories_of_the_er_QHdzX_Gi6j8'
p635
I6241
sS'alvino_rey_plays_st_louis_blues_with_stringy_the_talking_steel_guitar_jPd9cxqKCVg'
p636
I8775
sS'best_basketball_vines_compilation_vol_15_NXsAdetjvoY'
p637
I8875
sS'game_of_horse_with_trick_shot_titus__studio_c_8X4Ysf5xtP4'
p638
I8106
sS'how_to_play_snow_outside_by_dave_matthews_band_q0bBJ76he8g'
p639
I3676
sS'kamisama_kiss__kurama_ostrich_tengu__official_clip_Ui6t4zG7BWw'
p640
I6147
sS'bird_plays_peekaboo__funny_talking_indian_ringneck_Bauj-buxRDc'
p641
I4762
sS'little_tikes_big_dog_truck_rideon__walker_commercial_cDFjuNThZxs'
p642
I5158
sS'vw_r32_lunch_control_with_gopro__xG9X0ckHmE'
p643
I3801
sS'goat_plays_the_guitar_C-Mk86F3rI0'
p644
I1737
sS'arab_playing_with_tiger_cubs__funny_cubs_U8Zg4fut1ME'
p645
I6687
sS'the_kids_playing_in_the_snow_1I3ttj6SARI'
p646
I224
sS'first_front_flip_y6-L1khMD7U'
p647
I6233
sS'macaw_playing_with_dog_kMr07WddOGg'
p648
I5140
sS'snowmobile_head_to_head_drag_race_vs_2_ferrari__modball_rally_2015_craziness_tKzN_tgv2X4'
p649
I1157
sS'lego_city__police__60048__police_dog_unit__lego_3d_review_xAdKyQJrmzs'
p650
I5611
sS'dog_wearing_google_glass_BV4xSJMccT0'
p651
I6677
sS'peris_scope_jazz_by_bill_evans_performed_by_the_moments_notice_jazz_trio_Z6h7F4e7fmo'
p652
I3223
sS'my_cute_dog_lila_playing_the_piano_and_singing__funny_animal_video_JSB84xWJk5M'
p653
I2633
sS'minions_playing_soccer_C058wv48oms'
p654
I1889
sS'solvit_dog_ramps_for_trucks__suvs__adjustable_dog_ramp_review_ywnAtgazyZI'
p655
I3555
sS'dancing_marching__jumping_choco_poodle_dog_iYDS8n_6I00'
p656
I3067
sS'parrot_talking_laughing_and_playing_peekaboo_MNEIByUh_zw'
p657
I8950
sS'the_neediest_cat_in_the_world_GMeHd0Ee5Bw'
p658
I3944
sS'little_red_wagon_corn_dogs_truck_ecep4DiD11g'
p659
I1715
sS'how_to_cheat_at_playing_guitar_the_easiest_way_to_play_that_anyone_can_learn_in_seconds_VYiL8G6yooE'
p660
I1175
sS'delta_chi_cycling__google_glass_lNNu0seCsQM'
p661
I4153
sS'the_trashmen__surfin_bird__1963__ZThquH5t0ow'
p662
I4012
sS'riding_lincoln_avenue_bike_lane_with_google_glass_K0Dk2RZI-Jw'
p663
I6985
sS'dogs_priceless_reaction_after_discovering_shadow_ACHrRMRSec0'
p664
I6273
sS'goat_loves_playing_with_yoga_ball_BMG7xvBC7dY'
p665
I5055
sS'gopro_merry_christmas_lunch__25122014_VN8fLCq7640'
p666
I769
sS'dt_daily_nov_13_nissans_take_on_google_glass_track_your_pets_habits_helping_typhoon_victims_TINjU-TB1N4'
p667
I8012
sS'zebraplay_AHjkhelJsNk'
p668
I8972
sS'sianna__cessna__3_year_old_girl_riding_163_hand_horse_qZRs-o-M65I'
p669
I3178
sS'messing_around_with_my_dog_throughglass_googleglass_german_shepherd_ecs-M7HIyd4'
p670
I5251
sS'goprolunch_break_NEG3PxmtFCI'
p671
I8378
sS'gopro_driving_edit__the_cat_and_fiddle_road_yR9KfNosY5s'
p672
I6157
sS'teenage_mutant_ninja_turtles_turtle_robots_and_splinter_fight_shredder_foot_clan_cyclops_imaginext_iG3d6sDnQq0'
p673
I167
sS'donaldsonville_to_new_orleans_audubon_zoo_gopro_time_lapse_X3akledw1fY'
p674
I761
sS'google_glass_bike_crash_SCcFM4jAkS4'
p675
I7521
sS'me_singing_teardrops_on_my_guitar_by_taylor_swift_tARyQPx8hu4'
p676
I1947
sS'i_love_bird_longbilled__dowitcher_h8PC79caIS0'
p677
I2629
sS'crazy_kangaroo_fight_knock_out_and_put_to_sleep_wwXINuTp1vg'
p678
I1936
sS'ostrich_taming_original_C4J1yOGJ9wI'
p679
I5222
sS'ups_driver_kicks_dog_cctv_shows_delivery_man_kicking_dog_and_fighting_owner__tomonews_AifPSC8DndY'
p680
I5117
sS'balloon_scares_the_crap_out_of_cat_y4RcDfdL9Uw'
p681
I8639
sS'playing_tug_of_war_with_love_birds_5PPvPYz3MbE'
p682
I881
sS'how_to_build_a_dog_sled_qcEa7wqqDyg'
p683
I1669
sS'diy_gopro_chest_mount__time_lapsed_jog_at_bukit_kiara_hills_Pdk2X2K3nGA'
p684
I8593
sS'cute_white_rabbit_playing_with_balloon_and_rabbit_scared_when_balloon_blows_up_l1DXPKjE2Zw'
p685
I2666
sS'bunny_rabbit_plays_with_golden_retriever_dhWpq__G-6o'
p686
I2270
sS'gopro_hero_jogging_2T0AAU0Xak0'
p687
I6831
sS'pitbull_dog_jumping_competition_escalada_vertical_pitbull_dog_7gtKMsiqK9Q'
p688
I7337
sS'wfr_promo_gopro_jogging_seward_park_V8iMR6DHuzc'
p689
I6064
sS'showing_business_clients__periscope_NmqsgJ0Yahs'
p690
I3211
sS'lets_play_soccer__lets_play_baseball__english_song_for_kids__lets_sing_listen_and_repeat_uYzwtiymDN4'
p691
I3373
sS'periscope_is_the_big_winner_in_mayweatherpacquiao_HVaHZ4qKv04'
p692
I1224
sS'tiger_and_dog_are_best_friends_smYZ7nJp5wg'
p693
I2540
sS'timo_maszewski__friends__freestyle_skiing__val_thorens_snowpark__young_skier_4XjRyc-fy9o'
p694
I7935
sS'capital_cities__kangaroo_court_official_CJinWua98NA'
p695
I4260
sS'frankie_goes_to_hollywood__relax_go_periscopedj_skiddle_remix_wdmvP65t3AU'
p696
I1106
sS'cat_playing_with_a_bird_really_very_cool_QFyI1cjsuGU'
p697
I5850
sS'welcome_to_my_ostrich_lady__a_comedy_parody_by_deven_green_kH0DsUSwsFc'
p698
I695
sS'let_me_out__simons_cat_HDzkaJOT_KI'
p699
I2821
sS'the_bear_went_over_the_mountain__nursery_rhyme__by_littlebabybum_hd_version_QAW2GSwUnNo'
p700
I2666
sS'teddy_bear_teddy_bear_turn_around__3d_animation_english_nursery_rhyme_song_for_children_7X0Q4F--g0s'
p701
I1352
sS'talking_kitty_cat__sylvester_goes_to_the_vet_yR6ejO1NO10'
p702
I234
sS'kinky_talk_with_destorm__happy_hour_with_taryn__episode_7_t0WYJVVpiQo'
p703
I5023
sS'gopro_hero_3_black_edition_squirrel_eat_our_lunch_hyde_park_vHEasy7-PPg'
p704
I8004
sS'tucker_piano_2_caught_on_camera_AvqJ4iT3CwE'
p705
I3671
sS'baby_zebra_playing_with_birds_D1Rv-M5EOl4'
p706
I5553
sS'scrotum_totem_pole_by_noemotion_directed__produced_by_edk_07jIxPatag4'
p707
I7434
sS'zamba_and_the_zebra_playing_in_the_paddock_R8FnANe2wDw'
p708
I8396
sS'dogs_playing_with_babies_compilation__gf6ZnzjC7w'
p709
I2712
sS'awww_baby_goat_desperate_to_headbutt_a_horse_vOJ32F4v-04'
p710
I5098
sS'breathe_the_most_beautiful_snowmobile_video_3QGiMOlqfIM'
p711
I2633
sS'crazy_baby_goat_back_flips_off_other_goats_AWvefaN8USk'
p712
I3236
sS'singing_and_playing_guitar_death_metal_lesson_N7Ze3vhsehg'
p713
I4960
sS'baby_sheep_plays_on_bed__funny_JLAc1f5OVps'
p714
I4366
sS'digging_sliding_cute_netherland_dwarf_bunny_rabbit_play_on_the_bed_hIRSHAGqhwM'
p715
I5832
sS'claytronics_shape_transformation_bear_waving_axcs0vpEpaE'
p716
I6015
sS'dog_challenge_jkB93kVoSyg'
p717
I3500
sS'periscope_faster_than_meerkat_ceo__cnbc_rLpS0_d0OR8'
p718
I1936
sS'thug_life__fastest_turtle_in_the_world_qt4JPyKfSSg'
p719
I5683
sS'shaving_cream_smack_prank_periscope_erikmeldik_sitIqtFlWTo'
p720
I7566
sS'zebra_finch_babies_playing_and_eating_seed_hd_KLBm-fJe6lg'
p721
I357
sS'love_bird_playing_with_ball_5KdIY8benY4'
p722
I1592
sS'trippy_turtle__wet_Z2nn69Jnd8E'
p723
I1638
sS'april_showers__simons_cat_0kgTfbL21G8'
p724
I8211
sS'meet_23_of_mah_cats__-PK_mWRS4PA'
p725
I5781
sS'gopro_cam_jog_an_burning_fat_bSyjAO2iamw'
p726
I4244
sS'japanese_kids_playing_tons_of_balls_and_balloons_11q28oh-r4o'
p727
I5358
sS'talking_kitty_cat__scratch_fever_5ol5kAhO2BI'
p728
I4476
sS'polar_bear_vs_walrus_Ob_oD1IsYbE'
p729
I7066
sS'gopro_driving_test_7RAuQjfSIWk'
p730
I733
sS'periscope_of_bernie_sanders_town_hall_part_3_YWjzt2l0Ufs'
p731
I6993
sS'gopro_driving_sideways_eYRRShztxEA'
p732
I4837
sS'google_glass_at_the_beach_tCioHM4nkxA'
p733
I8358
sS'watch_this_man_save_a_sea_turtles_life_by_giving_it_cpr_on_nbcs_the_island_70MxbBjaN4U'
p734
I6512
sS'teddy_bear_teddy_bear__mother_goose_club_playhouse_kids_song_xVa3PYY0hVs'
p735
I1472
sS'baby_goat_and_beagle_puppy_playing_Oci6WDk2KjI'
p736
I8549
sS'skiing_tricks_and_jumps_compilation__nick_martini_simon_dumont_thomas_dolplads_bobby_brown_aGaQBHEUzLU'
p737
I2879
sS'human_planet__arctic_greenland_sled_dogs__premieres_sunday_20_march_abc1_QeDv3hVcc8A'
p738
I5124
sS'how_to_play_soccer__dribbling_moves_in_soccer_for_beginners_dQ1Ng5QfJ3o'
p739
I2518
sS'cat_wearing_google_glasses__google_glass_parody__petody_bnA_SOcrQp0'
p740
I4598
sS'baby_lion__tiger_playing_t9je3P-_NmU'
p741
I7767
sS'tchabadjo___gipsy_jazz_and_tap_dance_double_bass_guitar_singing_ALtDtYnWFuo'
p742
I4409
sS'google_glass_biking_with_quad_copter_vision_iLyuffJz_5k'
p743
I6365
sS'kid_hurt_by_huge_beach_ball__owned_xd_six_SHtimZ5onIU'
p744
I7426
sS'knex_week_day_7__angry_birds_space_ice_bird_break_down_vs_robocombo_r24nPsJ32NA'
p745
I1093
sS'how_to_become_a_pro_soccer_player_-AMixgcQpQE'
p746
I530
sS'meerkat_and_periscope_say_no_to_nudes_thedesk_3whhGAXCo34'
p747
I8063
sS'nelly_furtado_im_like_a_bird_lyrics_2vHH2pOzuMA'
p748
I619
sS'monkey_wants_gopro__london_zoo_53ysH37U48U'
p749
I3059
sS'the_rock_sings_to_vickie_guerrero_GWW2QY-ybr4'
p750
I6593
sS'horse_play_jack_russell_rides_miniature_horse_H3wijW2mNHM'
p751
I6953
sS'electric_zoo_day_3_gopro_0EKdfbDnt2Y'
p752
I5704
sS'macaw_parrot_showers_in_a_sink_DpjwS0daWrM'
p753
I8524
sS'chvres_en_quilibre__goats_balancing_on_a_flexible_steel_ribbon_58-atNakMWw'
p754
I6521
sS'bears_waving_compilation_DHiGqRbI5uU'
p755
I1878
sS'dog_fetch_fails_ltS0G7KA7XQ'
p756
I3762
sS'dog_with_a_blog__the_truck_stops_here_commercial_PkjwxswAQPU'
p757
I533
sS'bear_fight_at_brook_falls_then_bear_jumps_off_waterfall__live_camera_highlight_gXsiqoMBepc'
p758
I6488
sS'four_hands_guitar_i4BYMvVvMg0'
p759
I4783
sS'yolanda_charles_masterclass_singing_and_playing_bass_guitar_EEdJP6ToAJ4'
p760
I7392
sS'tsavo_safari__leopard_kills_ostrich_XIxnBEv3EFg'
p761
I7022
sS'longbilled_dowitcher_hunting_in_the_surf_ao_nW8H7eCM'
p762
I7336
sS'gopro_hero4_the_adventure_of_life_in_4k_wTcNtgA6gHs'
p763
I1992
sS'gopro_hero3_driving_home_from_work_CGn7KmUiozk'
p764
I6012
sS'bird_trippin_e4ssbhWzTOU'
p765
I4135
sS'man_vs_kangaroo_round_2_Uca_CKuTHQc'
p766
I196
sS'visions_of_seoul_korea__walking_jogging_and_biking_wa_gopro_chest_mount_gopro_2_test_dmlyA7jJSO0'
p767
I2141
sS'watch_how_this_dog_reacts_when_he_sees_a_ball_pit_for_the_first_time_lWWqfWr9xJE'
p768
I1321
sS'amazing_dogbird_video_that_will_make_your_day_ef8BMF87EgM'
p769
I6478
sS'her_story__woman_viva_seifert_playing_guitar_singing_two_sisters_dreadful_wind_and_rain_lPSw-n3Ejjk'
p770
I2569
sS'cute_dog_playing_virtual_soccer_vRi0m329iL4'
p771
I1978
sS'bear_attack_man_is_trying_to_run_away_from_attacking_bear_gopro_eK0pO79YkvY'
p772
I4638
sS'google_glass_walking_my_dog_bwm-Tf5JLC8'
p773
I3326
sS'sheep_and_elephant_are_best_friends_CZES1UYO-SI'
p774
I3120
sS'big_cat_enthusiast_owns_six_tigers_and_two_lions_DrRqkW2jkF0'
p775
I3506
sS'screeching_weasel_totem_pole_eqTPWSFfB6M'
p776
I2410
sS'massive_bear_waves_to_woman_catches_lunch___abc_news_smy-F6Qm5wI'
p777
I4360
sS'who_knew_dogs_could_fly_qRkHhIeovsU'
p778
I135
sS'rare_adult_turtle_unboxing_JcU1Kcf51OE'
p779
I6529
sS'turtle_epically_eating_tomato_GvH4odJa8co'
p780
I8378
sS'man_on_the_street__the_periscope_Bk7VnTq68sk'
p781
I8562
sS'man_plays_with_tiger_caught_on_tape__zookeeper_swims_with_bengal_tiger_znhByutkne0'
p782
I2080
sS'macaw_bird_follows_owner__real_life_assassins_creed_mYNx1wuHR3I'
p783
I365
sS'zebra_playing_tummy_sticks_0SuThmD9EcI'
p784
I6432
sS'hero_the_hero_dog_gets_adopted_from_animal_haven_5HYJweVxxnA'
p785
I8300
sS'mutant_giant_spider_dog_sa_wardega_YoB8t0B4jx4'
p786
I3733
sS'longbilled_dowitcher_at_bjden_nor_DuCLb6QikIw'
p787
I1391
sS'54_dowitcher_trail_land_for_sale_bald_head_island_nc_real_estate_4GoAVY6breU'
p788
I5155
sS'cat_scared_of_mario_jump___TbUGwA_woCE'
p789
I4548
sS'smart_waving_bear_REXA6AhagKE'
p790
I2808
sS'periscope_first_look_at_twitters_livestream_app_6mp4RkxvE0g'
p791
I7018
sS'boss_bear_waving_bear_makes_an_amazing_catch_Kep72MghSxI'
p792
I2494
sS'go_periscope__crush_me_full_hd_P1JHny7E-B0'
p793
I5257
sS'funny_siberian_husky_video__siberian_husky_dogs_playing_mDnE-PbitNw'
p794
I3409
sS'dog_sled_training_wyl_g_IY6fQ'
p795
I7284
sS'red_pandas_play_in_the_snow_r-pUNHU2hjs'
p796
I4994
sS'epic_dog_fetch_fail_compilation__6Y1bpCm7nY'
p797
I6332
sS'my_rabbit_got_shot_playing_dead_TqIsQRtszAY'
p798
I3481
sS'sheep_playing_fetch_with_dogs_9-P_vF1voLY'
p799
I2095
sS'big_cats_like_boxes_too_J11uu8L8FTY'
p800
I7619
sS'google_glass_for_dogs_Oz8BugUnHFY'
p801
I2228
sS'play_soccer_like_a_girl_Uci4LTNOMkw'
p802
I2560
sS'sweet_manny_pacquiao_plays_guitar__sings_with_wife_jinkee_QhTOLr20H7I'
p803
I1768
sS'tiger_cubs_play_in_the_snow_at_the_st_louis_zoo_gBIOnmPXAYQ'
p804
I140
sS'my_cat_rabbit_and_dog_playing_together_part_1_AVckxLm5VrQ'
p805
I3016
sS'the_best_jumping_dog_youll_ever_find_ArqtEj_FD9Y'
p806
I6837
sS'shortbilled_dowitcher_in_toronto_bOeBCUeaFEE'
p807
I2482
sS'baby_ostrich_dance_party_A84DSgU6mQY'
p808
I6050
sS'klay_thompson_plays_basketball_with_strangers_0Ar0muvq5Qc'
p809
I7125
sS'giant_rabbit_playing_with_dog_7xAToHK2nMk'
p810
I5863
sS'magic_kingdom_railway_ride_from_main_street_usa_to_frontierland_RoqeOGq_lIg'
p811
I814
sS'aqua_something_you_know_whatever_sneak_peek_totem_pole_FnhaRKtE3LY'
p812
I3470
sS'rescued_tigers_swim_for_the_first_time_wxu1L4SAwZM'
p813
I5681
sS'meet_roger_the_giant_kickboxing_kangaroo_mqzwtmgx2OQ'
p814
I6136
sS'18_sled_dogs_over_20_mph_chN7WdlZ3JY'
p815
I7045
sS'crunch__free_jumping_2__new__miniature_horse_champion_mFImjWUvgQI'
p816
I2247
sS'nba_funniest_bloopers_of_2015__funny_basketball_fails_7_jCXcT8v9KAs'
p817
I857
sS'saving_a_macaw_from_piranha_in_the_amazon_dCe5xbum29g'
p818
I3651
sS'audi_rs3_340bhp_pov_test_drive_gopro_SKsO5jmEdeM'
p819
I6797
sS'top_10_strongest_dogs_in_the_world_oH_hk2bjfDY'
p820
I5978
sS'annoying_orange_lets_play__goat_simulator_2_PhGK9QxxXaw'
p821
I4970
sS'gopro_hd_hero_2_jogging_with_headstrap_uC-F9-9C1UE'
p822
I4246
sS'polar_bear_attacks_sleeping_walruses_E7xTV_UUEXI'
p823
I6510
sS'disney_periscopemain_street_usa_mOYpkeOiK6c'
p824
I4317
sS'asian_girls_playing_guitar_singing_try_by_pink__cover_oNc7-YoX-s4'
p825
I7187
sS'macey__lissie_sheep_playing_w_ball__running_wC1dfQXxYd8'
p826
I7476
sS'google_glass_walk_thru_venice_muscle_beach_throughglass_KuWpNO7TOmk'
p827
I6599
sS'dog_jumping_rope_the_double_dutch_f3rIqNRtxIw'
p828
I2634
sS'my_dog_jumping_high_2_b67dMVyHj7E'
p829
I2987
sS'french_bulldog_jogging_gopro_hero_3_10uAE4meCmg'
p830
I2037
sS'north_korea_children_playing_the_guitar_creepy_as_hell_gSedE5sU3uc'
p831
I1441
sS'chubby_bunny_challenge_with_my_dog_rusty_qIJwfmD9dXs'
p832
I6300
sS'facts_about_service_dog_id_cards__vests_legal_or_illegal_3hljCmYdcZY'
p833
I7109
sS'fishing_cat_underwater_gopro__cincinnati_zoo_mLkzM_1fQ9I'
p834
I7481
sS'newborn_horse_syndrome_suggests_links_to_childhood_autism_mKbwOv7eQKc'
p835
I710
sS'running_with_a_gopro_in_my_head_dZs557Esv_k'
p836
I7668
sS'biking_with_google_glass_in_a_rainy_day_Dg2zeMiShmM'
p837
I5100
sS'gopro_hd_cycling_lunch_ride_criterium_on_my_cervelo_bnmxucsFw8Y'
p838
I5011
sS'morgan_freeman_chats_with_jimmy_while_sucking_helium_FRKVQcbIByo'
p839
I5188
sS'my_blue__gold_macaw_JC34HBkRycE'
p840
I7290
sS'periscope_feeding_cute_cats_k71PoVXD_rY'
p841
I7010
sS'waving_bears_in_seattle_game_farm_EI1IWOLl5YU'
p842
I1789
sS'x_games_gopro_snowmobile_best_trick_goes_wrong_vluMPbATE28'
p843
I7229
sS'gopro_walking_spanish_narcissus_by_name_g_LTw_ezpqI'
p844
I6604
sS'end_of_jogging_workout_9_jan_2015_9_am_5_celsius_gopro_hero_2_Kma1HIh1wXU'
p845
I4971
sS'bird_and_dr_j_amazing_fight_u4oF34p3-rQ'
p846
I598
sS'las_vegas__carmines_restaurant__google_glass__through_glass__newport_beach_photographer_9tGRAeTSopk'
p847
I5793
sS'balloons_for_children__kids_play_balloons_fun_fun_b_chi_bong_bng_gyYo3oIonzk'
p848
I8440
sS'dogsled__dos_equis_beer__tv_commercial_ads_3SNQhv5lW8U'
p849
I5509
sS'ostrich_attack_Rb7Qdd5vMRw'
p850
I5958
sS'titanium__playing_guitar_and_singing_by_sunn__awesome__r79KH1TuGMA'
p851
I5745
sS'israeli_soldier_decides_to_take_a_guitar_and_singing_im_yours_KzM6YecTF7k'
p852
I3185
sS'white_kid_sing_the_blues_in_guitar_shop_like_its_nobodys_business_F1pwnb0NpQw'
p853
I8563
sS'509_films__volume_9_snowmobile_teaser_official_q-9FA_-S__E'
p854
I5152
sS'dog_saves_baby_dolphin_on_criccieth_beach_z4Xb29huo6w'
p855
I5015
sS'small_turtle_attacks_a_fluffy_cat_kFP6kzZJGOs'
p856
I8295
sS'worlds_deadliest__grizzly_bear_attacks_prey_K-Tfq6dARGk'
p857
I7984
sS'goat_kids_playing_king_of_the_mountain_qxr0s8qrs4c'
p858
I8721
sS'bear_sits_next_to_guy_rbE53XUtVw0'
p859
I1897
sS'man_sentenced_to_10_years_after_dragging_dog_behind_truck_S3ZaX8NSNvw'
p860
I2049
sS'cage_world_parrot_store__macaw_amazon_african_grey_parrot_cages__toys_1o645WhntJI'
p861
I2195
sS'funny_ostrich_Ko2tyyThtGQ'
p862
I8876
sS'gopro_snowmobile_down_rapids_in_iceland_8MPsTogn08w'
p863
I1527
sS'lunch_time_for_geese_via_gopro_Rf-MD8jclmg'
p864
I5794
sS'virtual_home_tour__1018_dowitcher__viera_fl__374982_-CxKvLl0148'
p865
I5940
sS'ed_sheeran_signing_and_playing_fans_guitar_on_stage_F77KEgbImfw'
p866
I2635
sS'florence__the_machine__dog_days_are_over_lyrics_ny4deVFsYuo'
p867
I8802
sS'world_record_basketball_shot_1265m_415_ft__how_ridiculous_H9SF2YIKRY8'
p868
I6268
sS'macaw__cant_wait_to_shower_MdXmjpbGW-Q'
p869
I5451
sS'horse_jumping_upto_160_classic_crusader_and_classic_goldrush_NcAOJmXwbaE'
p870
I3886
sS'cheetah_vs_ostrich_video_4kvev_A81NA'
p871
I7073
sS'subaru_dog_tested_whats_the_fuss_about_x698U8vd_WE'
p872
I7062
sS'basketball_wives_la__season_4_super_trailer__premieres_sunday_july_12__98c__vh1_h8W29W1i9PA'
p873
I3745
sS'hilarious_dog_talking_at_the_start_of_dog_sled_race_FYvBLiFKipY'
p874
I1846
sS'dog_with_a_blog_the_truck_stops_here_commercial__g_hannelius_singing_PWM_xblGXEs'
p875
I5359
sS'puppy_plays_with_rabbit_mr6kItIhzxU'
p876
I3938
sS'bears_in_the_modern_world__electric_deer_pdM9YOYrcbs'
p877
I2684
sS'ally__day_dog_teaching_baby_to_jump_YD9SEtaVKgA'
p878
I7429
sS'one_piece_treasure_cruise___yellow_princess_turtle_confirmed_L6Qxvbba5nE'
p879
I5032
sS'street_experiments_jkL4EQVDZFI'
p880
I5978
sS'childrens_learning_center_snow_play_and_mini_snowmobiles_A2gIT0Of8Sg'
p881
I6151
sS'sunday_bbq_lunch__gopro_time_lapse_BV8bzrH1Ez4'
p882
I5867
sS'vw_2014_golf_r_300bhp_pov_test_drive_gopro_N3I6pygsGUI'
p883
I2848
sS'2_week_old_baby_goats_playing_FG2d-yZKfgE'
p884
I2892
sS'red_pandas_play_in_the_snow_ERwHvwsGFoE'
p885
I7245
sS'puppy_and_kangaroo_play_chase_BjJU_2QuryA'
p886
I2709
sS'how_to_draw_a_sea_turtle_with_a_fountain_pen__blue_ink_3k_DXbC2qNI'
p887
I7838
sS'green_wing_macaw__magnolia_bird_farm_Iq0d_JAnEKE'
p888
I4660
sS'vet_school_dog_procedure_with_google_glass_t_UIvtR4dEo'
p889
I4846
sS'dog_plays_dead_to_avoid_taking_a_bath_35qG2OQ-OD0'
p890
I6314
sS'walking_jade__steady_gopro_test_W3VIuI79sfc'
p891
I4759
sS'shortbilled_dowitcher_HhaXpldwoC8'
p892
I1895
sS'life_is_strange_episode_2_out_of_time__max_playing_the_guitar_hu6AVIvqSqo'
p893
I2335
sS'gertjie_and_lammie_playing_together_0bL02GyIsKw'
p894
I8888
sS'raw_sheep_play_soccer_in_colombia_QNqqjzeAnFM'
p895
I728
sS'zebras_grazing_and_playing_ngorongoro_crater_tanzania_NIpCVQxVeO0'
p896
I7652
sS'man_throws_dog_into_garbage_truck_to_be_crushed_alive_-YhnqgjZHEM'
p897
I1219
sS'dan_treadways_100foot_snowmobile_jump_in_the_whistler_backcountry_through_our_eyes_BtV9Sl1KJk8'
p898
I754
sS'snow_patrol__chasing_cars_GemKqzILV4w'
p899
I3756
sS'turbo_and_the_turtle_f51NniMwr1o'
p900
I2456
sS'how_grows_a_baby_scarlet__macaw_zYm4A7D5vik'
p901
I821
sS'gopro_hd__manus_jogging__qtmDya9hDQ'
p902
I1716
sS'rc_monster_truck_at_the_dog_park_R92h7QUzhpM'
p903
I571
sS'full_video_shocking_moment_bear_kills_deer_in_back_garden_DLjtcLJuHas'
p904
I5491
sS'amazing_8_year_old_soccer_player_charlie_bontis_eW_DTmES4XM'
p905
I5799
sS'the_totem_pole_wik_GabWqms'
p906
I1027
sS'josh_malinas_cats_rkVWY2QcYsA'
p907
I1111
sS'gopro_lunch_break_longboard_session_1nKjjqO7xnc'
p908
I5386
sS'australian_lyre_bird_nZp8-puBI3c'
p909
I6314
sS'pittsburgh_dog_sledding_L8JCHhU-MnU'
p910
I6079
sS'turtle_sex__funny_funny_funny_turtle_making_weird_noises_7rE_FG2xauA'
p911
I2598
sS'wwt_slimbridge_longbilled_dowitcher__closeup_uFbr1ftQbGc'
p912
I7457
sS'moes_gopro_tips__tricks_1__driving_time_lapse_settings_demo_3oYHdaHeySQ'
p913
I4169
sS'the_best_dog_jumping_video_you_will_ever_see_v3Chw2ZuBOk'
p914
I6993
sS'gopro_hero_test_time_lapse_sunday_lunch_NM3u1h50xhc'
p915
I214
sS'erlebnis_zoo_hannover_gopro_SleREktq0EE'
p916
I5120
sS'britains_biggest_dog_VZGTeW6DnKk'
p917
I193
sS'gopro_4_black__parkour_in_brooklyn_zoo_with_head_strap_LIl4JkN2g54'
p918
I4638
sS'virtual_reality_football_soccer_funny_UC6suYVm60s'
p919
I8098
sS'english_angora_rabbit_girls_playing_UQFBSiimlug'
p920
I2091
sS'mini_lop_rabbit_playing_football_sFOFDDnm9nk'
p921
I2672
sS'time_lapse__driving_home_from_work__gopro_YFlgjUkblQk'
p922
I7435
sS'our_fluffy_snowloving_creature__nala_compilation_C28vX1Z4z8Y'
p923
I2231
sS'best_soccer_skillstricks_2012_FnEdZZylpg0'
p924
I6926
sS'dewey_kids_beach_party__beach_ball_bounce_part_1_ELBvdT0IPXg'
p925
I7061
sS'the_real_macaw_talking_parrot_YxEbKh40ttk'
p926
I7706
sS'goat_and_dog_play_together_aCDoBKmzuYc'
p927
I6059
sS'kid_gets_owned_when_trying_to_catch_a_beach_ball_O2lUkFKBExg'
p928
I7828
sS'pirates_of_the_high_seas_beach_ball_drop_Q0XevU0opEk'
p929
I405
sS'flappy_bird__the_movie__official_trailer_hd_jf2uhsZIgxQ'
p930
I8488
sS'my_dogs_sing_while_cat_plays_piano_L8_6oNKR3Ac'
p931
I5338
sS'morning_jogging_with_my_dog_w_gopro_hero2_VpBqrgfWqhA'
p932
I5463
sS'playing_beach_volleyball_with_google_glass_8FqxPhjti_M'
p933
I8850
sS'dog_bleeding_out_denied_care_negligence_at_detroit_animal_control_5horPhI1pKE'
p934
I56
sS'gopro_driving_timelapse_ha3aOHcHNsY'
p935
I1274
sS'pbb_kenzo_playing_guitar_with_ylona_kpWcEc1GaDg'
p936
I7481
sS'new_rare_cute_baby_turtles_eW18JnLQKpo'
p937
I8784
sS'giant_beach_ball_dad_vs_kids_1MkNOGHveZQ'
p938
I5544
sS'polite_bear_waves_hello___a_waving_bear_upfchqBx9bw'
p939
I4627
sS'google_glass_dog_likes_peanut_butter_VY_8dWR7daM'
p940
I6059
sS'katy_perry__dark_horse__ten_second_songs_20_style_cover_jus7S5vBJyU'
p941
I3362
sS'birds_playing_with_cats_compilation_2014_new_UWxEvwivhL0'
p942
I2866
sS'nxt_dog_sled_team_62AQ6UANCzI'
p943
I3256
sS'captain_kangaroo_with_mr_moose_and_bunny_rabbit_5LDgpQyuvAo'
p944
I6499
sS'dog_vs_water_balloons_oH8WoVvpbs8'
p945
I7420
sS'monster_jam__monster_mutt_dalmatian_monster_truck_freestyle__utep_sun_bowl_kqZ2I5teDJM'
p946
I3922
sS'cornish_rex_henry_playing_w_balloons_a69YXMGTX3A'
p947
I7315
sS'crazy_cliff_driving_crash__bmw_m3_drives_off_cliff_az_Vlgy5dbM'
p948
I6354
sS'flemish_giant_and_tea_cup_chihuahua_plays_PJiMgoFcXS8'
p949
I1424
sS'gopro_zoo_in_budapest_p00LjGn6MUw'
p950
I3442
sS'3_watch_dogs_using_google_glass__especialistas_primetek_xEgOSNIAAgM'
p951
I2373
sS'people_try_dog_food_for_the_first_time_nih0_66xBBw'
p952
I1633
sS'kangaroo_rmi_gaillard_81szj1vpEu8'
p953
I3529
sS'ostrich_pillow_for_napping_anywhere_UoBLEvAQVRU'
p954
I334
sS'kyle_walkers_dog_house__spurverts__part_2_I4u1R8vWXE4'
p955
I6459
sS'google_glass_mountain_bike_test__crash_ZRrl2H0InhQ'
p956
I488
sS'fluffy_bear_waving_cSPD9hxcbtM'
p957
I595
sS'larry_bird_top_10_plays_of_career_3lt1x-k3QGU'
p958
I6335
sS'gopro_mike_jogging__peche_par_temps_chaud_et_humide_opCdkCouT3o'
p959
I5309
sS'really_funny_waving_bear_jNtShLaALOg'
p960
I4409
sS'jogging_mit_der_gopro_hero2_sNm95VMFYMk'
p961
I3074
sS'polar_bear__running_machine_q62lVpfn1uI'
p962
I5385
sS'pet_the_lamb_that_thinks_its_a_dog_0y2ZxgJNlWs'
p963
I1831
sS'totem_poles_D67g476Ccws'
p964
I884
sS'cat_people_vs_dog_people_hP7vTqPrVqk'
p965
I3867
sS'gopro_epic_snowmobile_drop_UGuluMs0KTE'
p966
I5688
sS'strre_beckasinsnppa__longbilled_dowitcher__limnodromus_scolopaceus__klipp__1172_z7TNkNGaZOE'
p967
I5594
sS'kingmik_dog_sled_tours_lake_louise_alberta_canada_xqBPUrUE42Q'
p968
I7140
sS'hd___aso_bears_waving_-CLh8codHHA'
p969
I8831
sS'best_friends_cute_mini_lop_rabbit_drags_around_peter_rabbit_toy_3iKQqYCBQPs'
p970
I8442
sS'abb_irb_140_gopro_hero_2_jogging_full_auto_4HMiqwsXAEw'
p971
I7699
sS'dogs_who_lost_the_fight_against_sleep_zKOtwfbvzmg'
p972
I1526
sS'fun_quick_downhill_run_on_my_lunch_break__gopro_hero_3_7OnRJeFAzeA'
p973
I3914
sS'ambient_guitar_sketch_5_singing_into_pickups_R9S5ItcfXiM'
p974
I8135
sS'fancam_exo_playing_with_balloons__fanmeeting_in_japan_day_1__150417_150418_150419_0mfm-ATtaSo'
p975
I1511
sS'robot_to_play_flappy_bird_kHkMaWZFePI'
p976
I8846
sS'confused_kitty__cat_vs_glass_SE5MslxPpVg'
p977
I7141
sS'basic_freestyle_ski_tricks_ytVVdvp1A4s'
p978
I5326
sS'john_oliver_ukrains_yanukovychs_ostrich_OMKqaTD_DUE'
p979
I7635
sS'best_of_freestyle_skiing_2013_C-rZ5rfBtO8'
p980
I3814
sS'glassified_los_angeles_bike_commute_through_google_glass_SKZtPWkkbZE'
p981
I2290
sS'birds_singing_and_dancing_to_dubstep_compilation_IBgJjMVKKRk'
p982
I8411
sS'bear_and_man_spook_each_other_bEgeh5hA5ko'
p983
I6573
sS'compilation_of_dogs_on_sleds_eovEh-MdC9c'
p984
I1531
sS'child_guitar_prodigy_cNOo8jHrd2o'
p985
I5332
sS'the_gummy_bear_song__long_english_version_astISOttCQ0'
p986
I1488
sS'the_fight_animals__lions_vs_ostrich__dramatic_and_documentary_thriller_UFeeI1PgbQg'
p987
I4820
sS'totem_pole__mayan_smithgobat__ben_rueck__tasmania__climbing__adidas_outdoor_BgHyb_42zcM'
p988
I6185
sS'awesome_catch_by_the_bear_IVJApevLoHc'
p989
I3244
sS'bird_vs_snake__latest_sightings_0Yjdf3woXl8'
p990
I3079
sS'newborn_goat__kitten_playing_Vw-9KujPmD0'
p991
I3136
sS'lego_chima_ice_bear_tribe_pack_review_set_70230_P8NWFzhrKTw'
p992
I8262
sS'gopro_walking_on_the_lake__holland_state_park_rt2P5dJenrk'
p993
I796
sS'picking_up_hot__sexy_california_girls_with_a_massage__funny_prank_53s8lfed6jU'
p994
I5076
sS'dog_imitates_firetruck_sound_Y6LjNQ3nSz8'
p995
I6663
sS'dog_teaches_baby_to_jump__shadow_attack_iPdwKcdaeTI'
p996
I6594
sS'animal_expert_david_mizejewski_lemur__ostrich_010814_E8-qxBINl28'
p997
I3201
sS'get_directions_through_google_glass_V8ofTlynWPo'
p998
I2596
sS'exploding_basketball_pyramid__dude_perfect_PfuzjAXfeio'
p999
I3823
sS'stupid_prick_falls_through_ice_bear_grylls_Y9g3ef_q1hI'
p1000
I6117
sS'baby_lambs_running_jumping_playing_texel_sheep_-FxioHBQ5iw'
p1001
I2566
sS'white_tiger_loves_her_ball_j7CEgLSo0Co'
p1002
I6405
sS'a_midnight_citi_bike_ride_through_nyc_with_google_glass_uAQ8-lKHw98'
p1003
I2186
sS'giant_kangaroo_moves_into_brisbane_suburb_in_australia_lAt7VPhz0WI'
p1004
I5961
sS'wild_google_glass_pov_on_skate_board___venice_beach_skate_park_37umkgpagei_VyBgKjRlFbY'
p1005
I749
sS'a_basketball_will__your__tSVQj38qFRA'
p1006
I4646
sS'dogs_who_fail_at_being_dogs_kMhw5MFYU0s'
p1007
I1031
sS'dog_playing_piano_and_singing_IXcKrq2hEnE'
p1008
I8248
sS'charles_paddock_zoo_gopro_edition_IaEydwQUY5A'
p1009
I5560
sS'gopro_hd_the_pioneer_pack_vs_the_zoo_crew_riljgSH4lZs'
p1010
I2857
sS'meet_our_senior_pet_of_the_week_periscope_022012_nBZjGfRCLFY'
p1011
I2124
sS'gopro_hero_3__black_edition__edinburgh_zoo_MnsR6WMfS44'
p1012
I8662
sS'dog_beach_and_novice_periscope_broadcaster_SL559IaTGzM'
p1013
I722
sS'large_singing__dancing__talking_macaw_Ay5iY94TJpI'
p1014
I415
sS'white_tiger_plays_ipad__game_for_cats_gone_wild_lions_servals_and_more_DKBhTr5-ryg'
p1015
I7682
sS'play_doh_the_lion_king_simba_fuzzy_farm_jungle_animals_sheep_sheepdog_dohville_disneyplaydough_MRLUMVJkvyk'
p1016
I7768
sS'4th_grade_basketball_phenom_mike_miles_has_game_the_pointguard_prodigy_5ILbPFSc4_4'
p1017
I863
sS'world_record_longest_basketball_hook_shot__harlem_globetrotters_p9BPRUxkZ0s'
p1018
I8448
sS'usa_talks_about_winning_gold__kansas_basketball__71315_sfPUnVhT8HU'
p1019
I8835
sS'must_watch_giant_kangaroo_moves_into_suburb_awSf3boUjMo'
p1020
I7842
sS'behind_the_scenes_with_hannah_and_her_horse_G8jJGa4NQtQ'
p1021
I7582
sS'feeding_my_dog_raw_liver_ZOHaLdeEUXA'
p1022
I2722
sS'walking_my_dog_with_google_glass_5lpVl2ZzjXM'
p1023
I1817
sS'san_diego_zoo_gopro_11715_vClLAEkSHQ4'
p1024
I7097
sS'gopro_driving_from_dewey_to_camp_verde_arizona_H3ytYVDht_I'
p1025
I6226
sS'smyths_toys__little_tikes_big_dog_truck_MNzoLtdu9JE'
p1026
I3655
sS'santina_green_winged_macaw_goes_to_the_carnival_for_the_first_time_NcTKnVWdE7k'
p1027
I7694
sS'dogs_and_kangaroo_share_chips_N-NoehCCTqU'
p1028
I2475
sS'grizzly_bear_battles_4_wolves_6rBBPKUpC4E'
p1029
I1728
sS'telling_stories_through_totem_poles_T5DECPQe8Pk'
p1030
I7006
sS'how_to_play_chasing_cars_by_snow_patrol_on_guitar_UlDChbSe7b8'
p1031
I1574
sS'amazing_animal_facts_turtle_power_Ok9noKCtHYM'
p1032
I5483
sS'driving_a_1969_vw_beetle_bug_hd__sights_and_sounds_gopro_DFoR_Ii24A8'
p1033
I5626
sS'anna__elsa_puppies_dognapped_cruella_de_vil_kidnaps_dogs_disneytoysfan_ZAFVVTFSkxo'
p1034
I2209
sS'gopro_backflip_over_72ft_canyon__kelly_mcgarry_red_bull_rampage_2013_x76VEPXYaI0'
p1035
I3544
sS'premier_daniel_andrews_takes_on_matt__janes_periscope_challenge_pkRcJetdUhM'
p1036
I1899
sS'its_just_a_sheep_playing_soccer_ZRs44eUjkWw'
p1037
I3182
sS'bully_dog_drag_truck_new_best_lzgBEYJJ-rU'
p1038
I3741
sS'periscope_twitters_livestreaming_app_may_kill_meerkat_0_0MynsbpOo'
p1039
I7849
sS'big_dogs_playing_with_babies_compilation_2015_new_hd_KPP6ebNbFXQ'
p1040
I8269
sS'carving_a_16_foot_totem_pole_part_1_of_2_Xk29zlRqA6A'
p1041
I6476
sS'guantnamo_navy_bases_girl_scout_beach_through_google_glass_xG_0NUUIHPY'
p1042
I8803
sS'google_glass_venice_beach_skateboard_park_mHZZI6KAQeQ'
p1043
I4620
sS'snow_tha_product__play_lyrics_8Jm2-t_LvwQ'
p1044
I4865
sS'technique_focus_mod_roc__making_a_totem_pole_vWrfseJ7fXA'
p1045
I8022
sS'how_to_monetize_periscope_0WB1QGbjggM'
p1046
I5495
sS'waving_bear_so_cute_iKBHVbp_p0E'
p1047
I6835
sS'gta_5_leaked_north_yankton_dlc_new_cars_snowmobile_more_gta_v_leaked_north_yankton_dlc_-MiRQFNrN6M'
p1048
I229
sS'360degree_video_johnny_the_cat_SyAFVwafwQ0'
p1049
I4514
sS'funny_new_zealand_sheep_and_dog_playing_xGrnwQuNou8'
p1050
I2571
sS'120121_kyuhyun_singing_with_sungmin_accompanying_him_guitar__spZZL2FJiMk'
p1051
I6638
sS'2014_sep_16_gmt8_0613_3k_jogging_gopro_with_typhoon_kalmaegi_signal_no8_in_hung_hom_hk_BgNP-2f4rBo'
p1052
I6234
sS'shortbilled_dowitcher__wood_duck_QTrrsGOaipg'
p1053
I3013
sS'man_catches_flying_bird_with_bare_hand_NFjFptZ1wGI'
p1054
I2497
sS'basic_freestyle_skiing_tricks_lucy_PnUmSaXxiU4'
p1055
I4585
sS'superunknown_xi__best_skiing_trick_MsbXNhQ4xm4'
p1056
I5712
sS'cubs_first_steps_OkfEChXa2V0'
p1057
I1427
sS'dope_zebra__rhett__link_official_original_video_fljKx9nvrL4'
p1058
I1410
sS'dog_sledding_with_the_seaveys_mV0RskZD0lo'
p1059
I4679
sS'skidoo_snowmobile_crash_track_rips_in_half_while_climbing_hill_gotta_see_this_wreck__rollover_Ha_ZKFGG0jg'
p1060
I693
sS'girl_pulls_out_weave_playing_flappy_bird_IBVreSKQgtE'
p1061
I4989
sS'arrogant_cat_V3Y8IU6st5E'
p1062
I5748
sS'totem_pole_XH9TvVcvIR8'
p1063
I4577
sS'how_to_stop_your_dog_from_jumping_on_you_xISPVQi_bvw'
p1064
I4193
sS'why_cats_are_better_than_dogs_xSe1Gk_wwOY'
p1065
I2693
sS'blindfolded_beach_balls_with_twitch_ojzXHdL1pN8'
p1066
I8538
sS'playing_flappy_bird_xdJuzR6N04Y'
p1067
I7402
sS'jennette_mccurdy_periscope__cat_on_a_hot_tin_riff_SS2UXY-fqUg'
p1068
I8950
sS'you_sank_my_baby_bird_RTnVvAb3BRk'
p1069
I6346
sS'frozen_do_you_want_to_build_a_snow_man_lyrics_video_47kU1nrZ6Ps'
p1070
I7777
sS'athens_hotels_hotel_periscope__greece_hotels_and_accommodation__hotelstv_aWW0MeugGm8'
p1071
I3341
sS'lamb_who_was_raised_by_collies_thinks_she_is_a_sheep_dog_kstcFGc_FUE'
p1072
I8338
sS'a_bird_that_does_the_most_amazing_things_ever_a_must_watch_V6Fxclwdfxc'
p1073
I6232
sS'google_glass_cycling_app_wUutgJlhO0A'
p1074
I1944
sS'video_game_style_jogging__gopro_cam_NAhXWUpjXrc'
p1075
I7245
sS'rex_mini_rabbit_playing_with_pet_rabbit_toys_gCCJgA77vbQ'
p1076
I1409
sS'i_inherited_a_sled_dog_team__indie_alaska_Fe8v0UqGR6I'
p1077
I4374
sS'bear_waving_goodbye__very_funny_U9rcqpu5bUo'
p1078
I8541
sS'2015_budweiser_super_bowl_commercial_lost_dog__budweiser_bestbuds_xAsjRRMMg_Q'
p1079
I2036
sS'the_only_man_in_the_world_who_can_swim_with_a_polar_bear_grizzly_man_g7rZTZBOrqQ'
p1080
I1797
sS'dog_wearing_google_glasses__google_glass_parody__petody_JoF4dzHTvzE'
p1081
I6080
sS'the_bird_and_the_worm_full_homestuck_mep_3Tj9ndJFd5c'
p1082
I5042
sS'google_glass__bike_ride_from_santa_monica_to_venice_beach_I67Wgtlws9A'
p1083
I5332
sS'snowmobile_wheelies_on_water_iRonRtbnI9A'
p1084
I8629
sS'iconic_totem_poles_fd6A2-yphUs'
p1085
I7244
sS'dog_sled_surprise_bf5z3sXybwg'
p1086
I5641
sS'homeless_dog_living_in_a_cardboard_box_gets_rescued__has_a_heartwarming_transformation_RD8kf4453cY'
p1087
I4123
sS'14_year_old_girl_playing_guitar_cover_van_halen__eruption_solo_hd_best_quality_fDTm1IzQf-U'
p1088
I4475
sS'peppa_pig_ballerina__giant_spider_goop_candy_cat_plays_in_muddy_puddles_hobbykidstv_i3f2MTURO3g'
p1089
I719
sS'have_to_see_hilarious_ostrich_race__colonial_downs_5_pn727I2-E'
p1090
I3209
sS'orangutans_go_ape_with_gopro_blackpool_zoo_WlggDHQROt8'
p1091
I7065
sS'life__cheetahs_hunt_ostrich__challenges_of_life_8oV6SqyemCk'
p1092
I8551
sS'google_glass_bike_ride_6s5RCIQhJHQ'
p1093
I6334
sS'mountain_biking_taken_with_google_glass_explorer_2_EDTdnmae1AU'
p1094
I3560
sS'ostrich_mating_dance_hd-ueLAgIQU'
p1095
I683
sS'farting_on_dogs_CJrIc2WeJHA'
p1096
I1395
sS'bowie_talks_to_angry_bird_b5b3g1ISviQ'
p1097
I6685
sS'kids_playing_with_lots_of_balloons_N74Ceu-By38'
p1098
I2530
sS'a_bike_ride_as_recorded_by_google_glass_throughglass_vt9i-i545lM'
p1099
I6534
sS'diy_cat_paws__fluffy_paws__meow_meow_Iz2g1yWqLJw'
p1100
I162
sS'lion_head_rabbit_playing_football_c-BbCNUzuPY'
p1101
I8773
sS'bird_wakes_his_best_frienda_cat_sumn6flhNtg'
p1102
I1929
sS'best_basketball_vines_compilation_vol_1_edl8JsaZaoA'
p1103
I6983
sS'amazing_totem_poles_648gwElcPzU'
p1104
I4244
sS'____rabbit_playing_drums__2MNBoWKJBPQ'
p1105
I525
sS'red_panda_playing_in_the_snow_y6GaPkkGZGw'
p1106
I5018
sS'shaun_the_sheep_championsheeps__beach_volleyball_official_video_ezc9VNTDx38'
p1107
I5984
sS'dog_jumps_off_cliff_gopro_hd_EREQEy2tOxo'
p1108
I1766
sS'butterflies__simons_cat_a_valentines_special_TZPN9g2pmPQ'
p1109
I7347
sS'chill_turtle_takes_gopro_on_a_leisurely_swim_through_great_barrier_reef__mashable_AJ5Je7SBk0k'
p1110
I7627
sS'lunch_break_gopro_hero_4_silver_cvWEfHFMwNg'
p1111
I7027
sS'short_billed_dowitcher_lodmoor_015_NVJaTmJ-iec'
p1112
I6105
sS'how_to_think_faster_on_the_field__speed_of_play__online_soccer_academy_fynBmunDu1E'
p1113
I8733
sS'fifth_harmony_singing_heart_attack_by_demi_lovato_camila_playing_the_guitar_BaIIx-Q8o9s'
p1114
I4634
sS'funny_guilty_dogs_compilation_2015_new_hd_kZw-jgCRPeE'
p1115
I2550
sS'bike_finder__google_glass_d99Sg-09zuc'
p1116
I7780
sS'spiderman_basketball_part_1_m7D-67xqwYE'
p1117
I8931
sS'tribe_snoz__totem_pole_tReVmUtDTJo'
p1118
I1147
sS'german_shepherd_luca_and_sheep_playing_Iah7E2tgt_M'
p1119
I4666
sS'gopro_driving_the_case_maxxum_125_Ue8mk7Ms6zw'
p1120
I8135
sS'raising_rabbits_for_meat_rabbit_playing_k8TEY6_PD8s'
p1121
I8518
sS'ostrich_lays_egg_BarYhKBEmfc'
p1122
I7213
sS'polar_bear_killed_by_a_walrus_-nBpugLyQTs'
p1123
I4321
sS'best_talking_macaw_ever_wRGcPa80Y1c'
p1124
I2432
sS'cat_friends_with_a_fish__cat_and_fish_playing_in_a_bathtub_2ooqNPfSBSA'
p1125
I2986
sS'macaw__get_people_nhYeNaOsmhw'
p1126
I2781
sS'gopro_arctic_dogsled_O_Mg0bdfW2c'
p1127
I263
sS'broadwaycom_live_on_periscope_twotime_tony_award_winner_sutton_foster_of_younger_quick_fan_chat_d9UZNZwbyNo'
p1128
I7243
sS'vine_funny_dog_jumping_in_water_05pXAwm8EJk'
p1129
I3234
sS'capital_cities___kangaroo_court_lyrics_ingles__subtitulado_en_espaol_LpHANr1KjnM'
p1130
I135
sS'new_born_baby_sea_turtles_race_to_the_ocean_T8eGw1oyYoQ'
p1131
I908
sS'cat_at_periscope_depth____gjAbCF8V00o'
p1132
I3644
sS'walking_deads_norman_reedus_tries_periscope_for_first_time_during_wrap_shoot__AWiR_1tCPI'
p1133
I2490
sS'when_the_dog_stays_at_home_alone______7D5bPLxU8U8'
p1134
I2635
sS'kangaroo__leo_aberer__official_video_tZgYyPFAiTc'
p1135
I1458
sS'impossible_remix__five_nights_at_freddys_3_balloons_mandopony_uxecvB0hqq4'
p1136
I2218
sS'gopro_hero_4_4k_driving_test_xdiNs5qacM8'
p1137
I7001
sS'first_periscope_cats_available_for_adoption_at_helping_hands_humane_society_in_topeka_kansas_u34KDj--TaI'
p1138
I8255
sS'hd_gopro_preikestolen__walking_the_edge_litt_p_kanten___GnXHNPNBRSw'
p1139
I7939
sS'zebra_playing_the_guitar_pg_barcelona_nHQWJdmWzkE'
p1140
I436
sS'peppa_pig_sleepover_slumber_party_with_suzy_sheep_play_doh_dctoyscollector_fiesta_de_pijamas_5m4PNMlLzPk'
p1141
I433
sS'so_you_think_horse_riding_is_easy_hrpRVbLRoJ4'
p1142
I2812
sS'kid_gets_hit_with_giant_beach_ball_C8JQqMsN0Bk'
p1143
I502
sS'cute_munchkin_baby_kitten_talks_too_much_YZs3EADi2pQ'
p1144
I855
sS'cute_dog_having_fun_in_a_water_fountain_ZqL5ZNidfVY'
p1145
I8042
sS'robbie_kennedy_with_his_acoustic_guitar_singing_iris_week_3_auditions__britains_got_talent_2013_WDDU_pBfdfI'
p1146
I8545
sS'diy_sparkly_fake_snow_d_rWIjnEq7s'
p1147
I2539
sS'my_tamed_zebra_finches_iFkPrmcLTxU'
p1148
I2501
sS'bird_in_no_need_for_love_RzvV6nWvslQ'
p1149
I4928
sS'trying_to_eat_with_a_cat_around_gfWVggwa2dQ'
p1150
I7362
sS'best_funny_dogs_vs_balloons_compilation_2014__ahf_5onpGhckv4I'
p1151
I2121
sS'dog_steals_hose_and_sprays_owner_jqZueLp_3yU'
p1152
I1512
sS'man_turns_his_house_into_indoor_cat_playland_and_our_hearts_explode_okOVxfuSYPk'
p1153
I2036
sS'dewey_kids_beach_party__beach_ball_bounce_part_3_p5MirsdlkrQ'
p1154
I8828
sS'tony_drake_blind_and_autistic_singing_and_playing_guitar__unchained_melody_p63PTArsCdg'
p1155
I2598
sS'the_worlds_first_periscope_star__instafamous_ujf7L08JLHY'
p1156
I1551
sS'tiger_play_in_south_africa_with_john_tigerman_wagenaar_jDjohN19ysM'
p1157
I3345
sS'kid_getting_hit_in_the_head_with_beach_ball3gp_XTfEm8QzqJg'
p1158
I4469
sS'goat_plays_chess_wq7Y2xx-U6A'
p1159
I6074
sS'playing_with_a_zebra_in_mauritius_cgC2-QKfg54'
p1160
I8122
sS'dog_jumping_on_trampoline_G5I0T9NYu54'
p1161
I46
sS'cat_at_periscope_depth____ktZCwMdHMRg'
p1162
I1222
sS'through_google_glass_biking_around_lake_tahoe_THoenh-DxiQ'
p1163
I8716
sS'gopro__summer_2014_edit_trailer__rhode_island_southwick_zoo_new_england_dragway_Fm4C1sclx48'
p1164
I5873
sS'polite_bear_waves_hello_to_car_passenger_7Mer3pgT7n4'
p1165
I6776
sS'bird__no_tint_official_music_video_8bdhC-zjqv0'
p1166
I475
sS'lion__tiger_playtime_57fSN4Ee0ho'
p1167
I7756
sS'public_prank__singing_club_songs_to_people_KSCjVNycktw'
p1168
I852
sS'live_broadcasting_periscope_app_sparks_concerns_YkiOavwA_Hs'
p1169
I2135
sS'flying_snowmobile__15km_high_mountain_j6M0vP1rWm4'
p1170
I2710
sS'san_diego_zoo__seaworld_through_my_gopro_U2CkkWSucXM'
p1171
I631
sS'honda_civic_si_2012_gopro__3rd_day_manual_drive_pov_learning_XiDWUo3J_S8'
p1172
I4618
sS'snowmobile_goon_riding_K3-B_9El_0U'
p1173
I8866
sS'cute_aggressive_baby_zebra_shoves_adorable_baby_camel_out_of_the_way_-XDCp2bKEjw'
p1174
I4885
sS'funny_dogs_playing_dead_after_finger_shot__funny_and_cute_dog_compilation_DbW22LKbb4s'
p1175
I5943
sS'vlog_4_playing_around_with_balloons_MF45cMLIuW0'
p1176
I2345
sS'nigerian_dwarf_goat_kids_playing_wvNSstp-7k8'
p1177
I6921
sS'the_wiggles__tie_me_kangaroo_down_sport_featuring_rolf_harris_PmiDb-8zF34'
p1178
I4965
sS'dog_and_deer__best_friends_forever_cmOMA6CqL68'
p1179
I2776
sS'fish_plays_fetch_like_a_dog_jGxOK-bS4NM'
p1180
I3473
sS'polar_bear_love_cute_polar_bear_cubs_lovin_up_their_mamma_CbILj_CYqno'
p1181
I630
sS'gopro_cam_landing_at_strawberry_inn_for_lunch_rGgQ9QwrjVw'
p1182
I5398
sS'clydesdale_horses_playing_football_interrupted_by_streaking_sheep_on_pitch_F35hBt-SZ9w'
p1183
I5189
sS'basketball_wives_la_brandi_vs_mehgan_sneak_peek_YVCJz7QIcew'
p1184
I5780
sS'teenager_throwing_beach_ball_at_kids_cEl7IgtUCoE'
p1185
I714
sS'photo_of_dog_chasing_truck_sparks_debate_in_slidell__8pGr2eH5uI'
p1186
I4344
sS'lego_movie_60048_police_dog_unit__legocom_6YD7s5tRKiY'
p1187
I5686
sS'shortbilled_dowitcher_lodmoor_rspb_24092012_vBh1OuSXoHk'
p1188
I1558
sS'gopro_florida_brevard_zoo_ljwA0xtv5DA'
p1189
I1869
sS'watch_this_dogs_amazing_transformation_after_being_rescued_kVbPAzOCGt4'
p1190
I6250
sS'hd_clever_polar_bear_stalks_seal__polar_bear_spy_on_the_ice_preview__bbc_one_B0DCOTaZgtA'
p1191
I5270
sS'funny_powder_sled_disapears_climb_2011_m8_rangeley_maine_snowmobile_z33jp1-sUlM'
p1192
I8580
sS'how_to_play_flappy_bird_in_gta_5_gta_5_flappy_bird_easter_egg_tutorial_gg9ZXuPFZic'
p1193
I6325
sS'what_kinds_of_toys_do_rabbits_like__pet_rabbits_Z-1faBh7DIs'
p1194
I3250
sS'polite_bear_waves_hello__a_waving_bear_O6Xo21L0ybE'
p1195
I5560
sS'how_to_make_herobrine_totem_pole_132_QFaW4rPyRZo'
p1196
I562
sS'highlining_the_totempole_hd_rFM3OUUL5fI'
p1197
I5318
sS'the_trampoline_dog_Hly0vuXPG-M'
p1198
I7197
sS'funny_cats_and_kittens_meowing_compilation_2014_hd_DXUAyRRkI6k'
p1199
I1001
sS'animal_jam__polar_bear_snow_delicious_3U1eqtmjWqc'
p1200
I5260
sS'gopro_walking_FTcx37CHDfo'
p1201
I2376
sS'minecraft_xbox__ps3__zombie_horse__skeleton_horse_in_tu19_KQRW7gBGPB4'
p1202
I8448
sS'standing_dog_plays_piano_and_sings_g_Rq9uwF4k8'
p1203
I4724
sS'parry_gripp__turtle_LRWAFQqQY9Y'
p1204
I2384
sS'ostrich_mating_dance_and_laying_egg_zJZ4ELkLC4s'
p1205
I1341
sS'dog_vs_sprinkler_YHxkW2a8rAU'
p1206
I2063
sS'chinese_robot_plays_flappy_bird_i1_X2KdUQe8'
p1207
I2712
sS'squeeze__periscope_otIb-BAN2pI'
p1208
I8194
sS'fake_disguisereal_soccer_player_insane_freestyler_wN3GldmOa-0'
p1209
I661
sS'my_dog_jumping_high_KNiZCWI8C0g'
p1210
I5277
sS'ib_icebear__studio_action_im_sden_Ou3DjbVameg'
p1211
I4059
sS'nunavut_teens_toronto_mural_periscope_test_YK26ASKMZU4'
p1212
I4665
sS'dog_whisperer_trainer_walks_pack_of_dogs_without_a_leash_Cbtkoo3zAyI'
p1213
I2777
s.