(lp0
(I0
I01
tp1
a(I240
I01
tp2
a(I390
I01
tp3
a(I1410
I01
tp4
a(I3030
I01
tp5
a(I3540
I01
tp6
a(I3930
I01
tp7
a(I4050
I01
tp8
a(I4410
I01
tp9
a(I4530
I01
tp10
a(I5100
I01
tp11
a(I5820
I01
tp12
a(I6000
I01
tp13
a(I6360
I01
tp14
a(I6480
I01
tp15
a(I6810
I01
tp16
a(I6990
I01
tp17
a(I7410
I01
tp18
a(I8070
I01
tp19
a.