(lp0
(I0
I01
tp1
a(I30
I01
tp2
a(I960
I01
tp3
a(I1050
I01
tp4
a(I1140
I01
tp5
a(I1230
I01
tp6
a(I1680
I01
tp7
a(I1830
I01
tp8
a(I2010
I01
tp9
a(I2190
I01
tp10
a(I2310
I01
tp11
a(I2400
I01
tp12
a(I2940
I01
tp13
a(I3030
I01
tp14
a(I3360
I01
tp15
a(I3450
I01
tp16
a(I3900
I01
tp17
a(I4080
I01
tp18
a(I4530
I01
tp19
a.