(lp0
(I0
I01
tp1
a(I30
I01
tp2
a(I120
I01
tp3
a(I300
I01
tp4
a(I390
I01
tp5
a(I690
I01
tp6
a(I720
I01
tp7
a(I1170
I01
tp8
a(I1410
I01
tp9
a(I1590
I01
tp10
a(I2520
I01
tp11
a(I2640
I01
tp12
a(I2880
I01
tp13
a.