(lp0
(I0
I01
tp1
a(I300
I01
tp2
a(I570
I01
tp3
a(I750
I01
tp4
a(I840
I01
tp5
a(I1230
I01
tp6
a(I1680
I01
tp7
a(I2130
I01
tp8
a(I2490
I01
tp9
a(I2790
I01
tp10
a(I3030
I01
tp11
a(I3270
I01
tp12
a(I3720
I01
tp13
a(I4110
I01
tp14
a(I4410
I01
tp15
a(I4680
I01
tp16
a(I4980
I01
tp17
a(I5520
I01
tp18
a(I5790
I01
tp19
a(I6060
I01
tp20
a(I6210
I01
tp21
a(I6690
I01
tp22
a.