(lp0
(I0
I01
tp1
a(I330
I01
tp2
a(I660
I01
tp3
a(I780
I01
tp4
a(I900
I01
tp5
a(I990
I01
tp6
a(I1260
I01
tp7
a(I1350
I01
tp8
a(I1740
I01
tp9
a(I3240
I01
tp10
a(I3570
I01
tp11
a(I5250
I01
tp12
a(I5430
I01
tp13
a(I5970
I01
tp14
a(I6540
I01
tp15
a.