(lp0
(I0
I01
tp1
a(I360
I01
tp2
a(I780
I01
tp3
a(I990
I01
tp4
a(I1410
I01
tp5
a(I1620
I01
tp6
a(I2250
I01
tp7
a(I2670
I01
tp8
a(I2880
I01
tp9
a(I3720
I01
tp10
a(I4770
I01
tp11
a(I5400
I01
tp12
a(I5610
I01
tp13
a(I6450
I01
tp14
a.